(dp0
S'Sandra Morgen'
p1
(lp2
S'Mary Leakey'
p3
aS'Roberta Gilchrist'
p4
aS'Zalpa Bersanova'
p5
aS'Christiane Desroches Noblecourt'
p6
aS'Esther Hermitte'
p7
asS'Melahat Okuyan'
p8
(lp9
S'Marie Darby'
p10
aS'Alla Ter-Sarkisiants'
p11
aS'Betty Meggers'
p12
aS'Valerie Aurora'
p13
aS'Barbara McClintock'
p14
asS'Grace Eldering'
p15
(lp16
S'Margot Shiner'
p17
aS'Beryl Platt, Baroness Platt of Writtle'
p18
aS'Olive Scott'
p19
aS'Samantha Tross'
p20
aS'Elizabeth Lee Hazen'
p21
asS'Martine Franck'
p22
(lp23
S'Judith Pipher'
p24
aS'Sabine Gaudzinski-Windheuser'
p25
aS'Aihwa Ong'
p26
aS'Joan Breton Connelly'
p27
aS'Theodora Kroeber'
p28
asS'Claire Smith'
p29
(lp30
S'Galina Lozko'
p31
aS'Meave Leakey'
p32
aS'Suzanne Duigan'
p33
aS'Marjorie F. Lambert'
p34
aS'Lisbeth Hockey'
p35
asS'Riin Tamm'
p36
(lp37
S'Carol Breckenridge'
p38
aS'Fuambai Ahmadu'
p39
aS'Karen Boswall'
p40
aS'Patricia Sawin'
p41
aS'Fe del Mundo'
p42
asS'Kathleen M. Adams'
p43
(lp44
S'Margr\xc3\xa9t Hermanns Au\xc3\xb0ard\xc3\xb3ttir'
p45
aS'Linda Braidwood'
p46
aS'Helen Fisher'
p47
aS'Barbara Smuts'
p48
aS'Katherine Sophia Kane'
p49
asS'Louise Stevens Bryant'
p50
(lp51
S'Cathy Small'
p52
aS'Carla Obermeyer'
p53
aS'Lisa Redfield Peattie'
p54
aS'Gayatri Reddy'
p55
aS'Velma Scantlebury'
p56
asS'Solveig Nordstr\xc3\xb6m'
p57
(lp58
S'Georgina Born'
p59
aS'Prudence Hero Napier'
p60
aS'Joann Kealiinohomoku'
p61
aS'Deborah Hyde'
p62
aS'Butet Manurung'
p63
asS'Theresa Goell'
p64
(lp65
S'Ynes Mexia'
p66
aS'Lorraine Copeland'
p67
aS'Mary J. Rathbun'
p68
aS'Chantal Boulanger'
p69
ag3
asS'Laura Nader'
p70
(lp71
S'Anna Maria Di Sciullo'
p72
aS'Eleanor Myers'
p73
aS'Patricia Wright'
p74
aS'Marika Moisseeff'
p75
aS'Nora Ahlberg'
p76
asS'Bess Thomas'
p77
(lp78
S'Alma Levant Hayden'
p79
aS'Gabrielle Howard'
p80
ag10
aS'Angella D. Ferguson'
p81
aS'Josefa Celsa Se\xc3\xb1aris'
p82
asS'Doris Zemurray Stone'
p83
(lp84
S'Emily Vermeule'
p85
aS'Catherine Namono'
p86
aS'Eleni Konsolaki'
p87
aS'Leila Badre'
p88
aS'Anita Brenner'
p89
asS'Tatiana Proskouriakoff'
p90
(lp91
S'Frances Densmore'
p92
aS'Fatimah Jackson'
p93
aS'Olga Najera-Ramirez'
p94
aS'Karen Vogtmann'
p95
aS'Martha Kaplan'
p96
asS'Genevieve Bell'
p97
(lp98
S'Annette Weiner'
p99
aS'Gabriella Coleman'
p100
aS'Unni Wikan'
p101
aS'Edith Marion Patch'
p102
aS'Louise Lamphere'
p103
asS'Hinke Osinga'
p104
(lp105
S'Marie Meurdrac'
p106
aS'Zvezdelina Stankova'
p107
aS'Elizabeth M. Bryan'
p108
ag52
aS'Daphne Gail Fautin'
p109
asS'Shannon Lee Dawdy'
p110
(lp111
S'Carole C. Noon'
p112
aS'Vera Yevstafievna Popova'
p113
aS'Janice Boddy'
p114
ag88
aS'Malika Zeghal'
p115
asS'Anne Johnson'
p116
(lp117
S'Jean Schensul'
p118
aS'Beatrice De Cardi'
p119
aS'Kristen Gremillion'
p120
aS'Eileen Krige'
p121
aS'Lucy Myers Wright Mitchell'
p122
asS'Kristina Killgrove'
p123
(lp124
S'Vera Grabe'
p125
aS'Diane Bell'
p126
aS'Henriette Mertz'
p127
aS'Jessica Greenberg'
p128
ag94
asS'Dorinne K. Kondo'
p129
(lp130
S'Veena Das'
p131
aS'Esther Newton'
p132
ag32
aS'Geraldine Finlayson'
p133
ag55
asS'Gisela Richter'
p134
(lp135
S'Marjorie Senechal'
p136
aS'Vivian Wing-Wah Yam'
p137
aS'Cynthia Beall'
p138
ag6
ag48
asS'Lisa Kewley'
p139
(lp140
S'Louise Nixon Sutton'
p141
aS'Elaine Oran'
p142
aS'Agnes Fay Morgan'
p143
aS'Regina Barzilay'
p144
aS'Rosalie Slaughter Morton'
p145
asS'Eleanor Robson'
p146
(lp147
S'Alicia M. Soderberg'
p148
ag81
aS'Alanah Woody'
p149
aS'Qian Xiuling'
p150
aS'Emily Willingham'
p151
asS'Margaret Bender'
p152
(lp153
S'Margaret B. Blackman'
p154
aS'Marcia Langton'
p155
ag122
aS'Jill Pruetz'
p156
aS'Jo Anne Van Tilburg'
p157
asS'Smadar Lavie'
p158
(lp159
S'Mary-Lou Pardue'
p160
aS'Jane Colden'
p161
aS'Shirley M. Malcom'
p162
aS'Rebecca Grinter'
p163
ag62
asS'Isis Pogson'
p164
(lp165
S'Kakani Katija Young'
p166
ag107
aS'Edith B\xc3\xbclbring'
p167
aS'Darshan Ranganathan'
p168
aS'Frances Stackhouse Acton'
p169
asS'Julie Makani'
p170
(lp171
g163
aS'Doris Mable Cochran'
p172
aS'Susan Cachel'
p173
aS'Pirkko-Liisa Lehtosalo-Hilander'
p174
ag161
asS'Jane MacLaren Walsh'
p175
(lp176
g52
ag115
ag114
ag133
aS'Irawati Karve'
p177
asS'Mary Jackson'
p178
(lp179
S'Selna Kaplan'
p180
aS'Kay Tye'
p181
aS'Diana Beck'
p182
aS'Charlotte Sahl-Madsen'
p183
aS'Eleanor Maguire'
p184
asS'Ruth Cernea'
p185
(lp186
S'Bianca Williams'
p187
aS'Annah Robinson Watson'
p188
ag119
aS'Natalie Curtis'
p189
aS'Janine R. Wedel'
p190
asS'Helene Hagan'
p191
(lp192
S'Sonia \xc3\x81lvarez Leguizam\xc3\xb3n'
p193
aS'Nancy Tyson Burbidge'
p194
aS'Alice H. Lichtenstein'
p195
aS'Rosemary Cramp'
p196
aS'Sara Plummer Lemmon'
p197
asS'Anne Elizabeth Ball'
p198
(lp199
S'Louise Pearce'
p200
aS'Ruth L. Kirschstein'
p201
ag182
ag73
aS'May Owen'
p202
asS'Jacqui Wood'
p203
(lp204
S'Ida Shepard Oldroyd'
p205
aS'Julia Wilmotte Henshaw'
p206
aS'Sara Murray Jordan'
p207
aS'Ye Shuhua'
p208
aS'Ellen Dissanayake'
p209
asS'Makereti Papakura'
p210
(lp211
g88
aS'Eliane Karp'
p212
aS'Viola Garfield'
p213
aS'Eleanor Leacock'
p214
aS'Miriyam Aouragh'
p215
asS'Heather Hurst'
p216
(lp217
S'Heather McKillop'
p218
aS'Heather Botting'
p219
aS'Hannah Landecker'
p220
ag32
aS'Emilie Demant Hatt'
p221
asS'Elizabeth Press'
p222
(lp223
S'Sibyl M. Rock'
p224
aS"Siobhan O'Sullivan"
p225
aS'Patricia Lindop'
p226
aS'Mary Cannon'
p227
aS'Maria Elizabetha Jacson'
p228
asS'Sheila Kitzinger'
p229
(lp230
S'Natalia Polosmak'
p231
aS'Elli K\xc3\xb6ng\xc3\xa4s-Maranda'
p232
aS'Katherine Ann Dettwyler'
p233
aS'Florence Hawley'
p234
aS'Marie-Lucie Tarpent'
p235
asS'Madeleine M. Joulli\xc3\xa9'
p236
(lp237
S'Caroline Birley'
p238
aS'Rachael Dunlop'
p239
aS'Erminnie A. Smith'
p240
ag90
ag46
asS'Lesley Yellowlees'
p241
(lp242
S'Blanche Wheeler Williams'
p243
aS'Alice Mossie Brues'
p244
aS'Ruth Kelly'
p245
aS'Mary Louisa Armitt'
p246
aS'Elda Emma Anderson'
p247
asS'Ruth Landes'
p248
(lp249
g46
aS'Katherine Routledge'
p250
ag132
aS'Annie York'
p251
aS'Grace Crowfoot'
p252
asg86
(lp253
S'Daphne Berdahl'
p254
aS'Esther Boise Van Deman'
p255
ag83
ag112
ag113
asS'Gudrun Corvinus'
p256
(lp257
S'Carmen Guarini'
p258
ag131
ag27
ag194
aS'Lucy Meredith Bryce'
p259
asS'Laura Bohannan'
p260
(lp261
S'Ursula Franklin'
p262
aS'Rachel Carson'
p263
aS'Ann Bannon'
p264
aS'Lilias Armstrong'
p265
aS'Mary Anning'
p266
asS'Elena Berezovich'
p267
(lp268
S'Carolyn Hamilton'
p269
aS'Sarah F. Maclaren'
p270
aS'Linda L. Barnes'
p271
aS'Clara Passafari'
p272
aS'Odille Morison'
p273
asS'Marta Turok'
p274
(lp275
S'Mary Albright'
p276
ag125
aS'Kathleen Musante DeWalt'
p277
aS'Mary Collins'
p278
aS'Patricia Birley'
p279
asS'Cezaria Baudouin de Courtenay Ehrenkreutz J\xc4\x99drzejewiczowa'
p280
(lp281
S'L. Taylor Hansen'
p282
aS'Diane Barwick'
p283
ag272
ag254
aS'Hilda Kuper'
p284
asg13
(lp285
S'Angela Hartley Brodie'
p286
aS'Ann T. Bowling'
p287
aS'Sara C. Bisel'
p288
ag120
aS'Chieko Asakawa'
p289
asS'Zakia Zouanat'
p290
(lp291
S'Karen Ramey Burns'
p292
aS'Susanne Osthoff'
p293
aS'Charlotte Roberts'
p294
ag123
ag90
asS'Tullia Magrini'
p295
(lp296
S'Ingrid R\xc3\xbc\xc3\xbctel'
p297
aS'K\xc3\xa4te Bosse-Griffiths'
p298
aS'Amelia Edwards'
p299
aS'Elena Cattaneo'
p300
ag52
asS'Mary Parke'
p301
(lp302
g63
aS'Pia Nalli'
p303
ag300
aS'Claudia Alexander'
p304
ag255
asS'Temperance "Bones" Brennan'
p305
(lp306
S'LaVerne Jeanne'
p307
ag3
aS'Carol J. Greenhouse'
p308
aS'Lucy Taxis Shoe Meritt'
p309
aS'Katharine Luomala'
p310
asS'Chien-Shiung Wu'
p311
(lp312
S'Aleksandra Dunin-W\xc4\x85sowicz'
p313
aS'Maria Goeppert-Mayer'
p314
ag246
ag247
ag245
asS'Antonia Mills'
p315
(lp316
S'Ann Dunham'
p317
aS'Birgit Zotz'
p318
ag190
ag308
aS'Gail M. Kelly'
p319
asS'Beatrice Mintz'
p320
(lp321
g200
aS'Sidney C. Wolff'
p322
aS'Aileen Fox'
p323
aS'Ella Orr Campbell'
p324
aS'Mary Anne Whitby'
p325
asS'Elizabeth Jacobs'
p326
(lp327
g6
aS'He Luli'
p328
aS'Sarah Franklin'
p329
aS'Elizabeth Marshall Thomas'
p330
aS'Cora DuBois'
p331
asg69
(lp332
g3
ag331
ag67
ag68
ag64
asS'Judith Shapiro'
p333
(lp334
g208
aS'Ni\xc3\xa8de Guidon'
p335
aS'Louisa Collings'
p336
ag108
aS'Neena Schwartz'
p337
asS'Lilian Hamilton Jeffery'
p338
(lp339
g7
aS'Tamasin Ramsay'
p340
aS'Constance Goddard DuBois'
p341
aS'Christine Murrell'
p342
aS'Frances McConnell-Mills'
p343
asS'Catherine T. Hunt'
p344
(lp345
S'Alette Schreiner'
p346
aS'Hoylande Young'
p347
aS'Victoria Joyce Ely'
p348
aS'Alice Kober'
p349
aS'Marie Curie'
p350
asS'Elinor Frances Vallentin'
p351
(lp352
S'Joyce Tyldesley'
p353
aS'Matilda Cullen Knowles'
p354
aS'Teresa Porzecanski'
p355
ag194
ag259
asS'Faiza Al-Kharafi'
p356
(lp357
g259
aS'Nancy Wexler'
p358
ag351
ag195
aS'Dolores Piperno'
p359
asS"Margaret O'Flynn"
p360
(lp361
S'Maude Delap'
p362
ag259
aS'Caroline Wilkinson'
p363
ag228
ag356
asg162
(lp364
g215
ag88
ag92
ag161
ag213
asg240
(lp365
S'Louise Burkhart'
p366
aS'Elizabeth Cowper'
p367
ag94
ag95
aS'Dia Cha'
p368
asg202
(lp369
g17
ag15
aS'Karen Vousden'
p370
aS'Cynthia B. Lee'
p371
aS'Merryl Wyn Davies'
p372
asS'Hilda Petrie'
p373
(lp374
S'Edith Porada'
p375
ag212
ag210
ag156
aS'Evelyn Byrd Harrison'
p376
asg21
(lp377
g18
ag15
ag19
ag17
ag20
asg4
(lp378
g250
aS'Svetlana Pletneva'
p379
ag120
aS'Carobeth Laird'
p380
ag1
asS'Sulamith Goldhaber'
p381
(lp382
S'Judith Kingston'
p383
ag172
ag89
aS'Naomi Amir'
p384
ag161
asg228
(lp385
g222
ag272
ag358
aS'Louise Reiss'
p386
ag362
asg143
(lp387
g142
ag139
ag183
aS'Mary Barber'
p388
aS'Ina Plug'
p389
asg7
(lp390
S'L\xc3\xa9lia Gonzalez'
p391
ag3
aS'Ewa Klonowski'
p392
ag308
ag1
asS'Margaret Meyer'
p393
(lp394
S'Vijaya Melnick'
p395
aS'Anne Dambricourt-Malass\xc3\xa9'
p396
aS'Andrea Ablasser'
p397
aS'Nicole Grobert'
p398
aS'Helen Fricker'
p399
asS'Ora Mendelsohn Rosen'
p400
(lp401
g102
ag19
aS'Yueh-Lin Loo'
p402
ag18
aS'Ragnhild Sundby'
p403
asS'Marimba Ani'
p404
(lp405
g25
aS'Moon Duchin'
p406
aS'Lina Eckenstein'
p407
ag22
ag20
asS'Ann C. Noble'
p408
(lp409
S'Rommie Amaro'
p410
aS'Gertrud P\xc3\xa4tsch'
p411
ag137
ag46
ag49
asS'Ami Radunskaya'
p412
(lp413
g234
ag183
ag145
aS'June Lascelles'
p414
aS'Marcia P. Sward'
p415
asS'Nancy Oestreich Lurie'
p416
(lp417
g277
aS'Susan Leeman'
p418
aS'Inez Whipple Wilder'
p419
ag148
aS'Margaret Lantis'
p420
asS'Lila Abu-Lughod'
p421
(lp422
g212
ag258
aS'C.H.E. Haspels'
p423
aS"Elizabeth Kapu'uwailani Lindsey"
p424
ag214
asS'Molly Shoichet'
p425
(lp426
S'Constance Wood'
p427
ag215
aS'Odette du Puigaudeau'
p428
ag112
ag113
asg145
(lp429
S'Liebe Sokol Diamond'
p430
ag414
aS'Gloria Lim'
p431
aS'Linda Laubenstein'
p432
ag183
asg75
(lp433
S'Virginia Guti\xc3\xa9rrez de Pineda'
p434
ag210
ag156
aS'Denise Schmandt-Besserat'
p435
ag271
asS'Selma Al-Radi'
p436
(lp437
S'Christiane Floyd'
p438
ag64
aS'Shana Poplack'
p439
aS'Donna Gerdts'
p440
aS'Katherine Sanford'
p441
asS'Mary-Russell Ferrell Colton'
p442
(lp443
S'Nancy Scheper-Hughes'
p444
aS'Hilma Granqvist'
p445
aS'Isabella Karle'
p446
ag376
aS'Ann Peoples'
p447
asS'Josephine Silone Yates'
p448
(lp449
S'Susanne Bickel'
p450
aS'Suzanna W. Miles'
p451
aS'Elizabeth Mertz'
p452
ag308
aS'Geraldine Harris'
p453
asS'Guillemette Andreu'
p454
(lp455
g391
aS'Gerta Keller'
p456
aS'Jocelyne Dakhlia'
p457
aS'Estelle Ramey'
p458
aS'Lisbeth Haas'
p459
asS'Charlotte Gower Chapman'
p460
(lp461
S'Diane Massam'
p462
aS'Judy Birmingham'
p463
ag269
aS'Anna Pujol Puigvehi'
p464
aS'Cindy Cruz'
p465
asS'Daria Khaltourina'
p466
(lp467
g388
ag87
aS'Gigliola Staffilani'
p468
ag150
aS'Kadambini Ganguly'
p469
asS'Faina Petryakova'
p470
(lp471
S'Susana Pinilla'
p472
ag269
ag421
ag353
aS'Jorun Solheim'
p473
asS'Dagmar H\xc3\xbclsenberg'
p474
(lp475
S'Nancy B. Jackson'
p476
ag430
ag457
ag342
ag343
asS'Elizabeth Truswell'
p477
(lp478
g93
ag47
ag102
ag407
ag18
asS'Henrietta Moore'
p479
(lp480
S'Sarah Milledge Nelson'
p481
aS'Joan Lee Tu'
p482
ag5
aS'Marjory Stephenson'
p483
ag31
asS'Margaret Thatcher'
p484
(lp485
S'Olga Tufnell'
p486
aS'Hina Rabbani Khar'
p487
ag266
aS'Mercedes Fern\xc3\xa1ndez-Martorell'
p488
aS'Margaret Murray'
p489
asS'Jacqueline Roumeguere-Eberhardt'
p490
(lp491
S'Joan M. Tenenbaum'
p492
ag358
aS'Vera Faddeeva'
p493
aS'Sylvia M. Broadbent'
p494
aS'Zagorka Golubovi\xc4\x87'
p495
asg386
(lp496
g272
aS'Bertha Phillpotts'
p497
ag254
ag337
ag227
asS'Nina Etkin'
p498
(lp499
S'Barbara Rylko-Bauer'
p500
aS'Rose Gaffney'
p501
aS'Carol Laderman'
p502
aS'Ellen Swallow Richards'
p503
aS'Antoinette Pirie'
p504
asS'Linda D\xc3\xa9gh'
p505
(lp506
S'Montgomery McFate'
p507
aS'Courtney Angela Brkic'
p508
ag120
ag233
ag85
asg419
(lp509
g418
aS'Alice Cunningham Fletcher'
p510
ag206
ag207
ag144
asS'Jean Bartik'
p511
(lp512
S'Catherine Feuillet'
p513
ag466
aS'\xc5\x81ucja Frey'
p514
ag342
ag343
asS'Saddeka Arebi'
p515
(lp516
S'Elizabeth French'
p517
aS'Constance Cox'
p518
ag74
ag250
aS'Madeleine Colani'
p519
asg168
(lp520
g107
ag207
ag208
ag225
aS'Maxine Fassberg'
p521
asS'Helena Hamerow'
p522
(lp523
g3
aS'Fr\xc3\xa9d\xc3\xa9rique Apffel-Marglin'
p524
ag69
ag309
ag292
asg340
(lp525
S'Shirley Heath'
p526
aS'Catherine Berndt'
p527
ag380
ag39
aS'Karla Poewe'
p528
asS'Rita Sapiro Finkler'
p529
(lp530
g492
aS'Irene Greif'
p531
aS'Amanda Adams'
p532
ag100
aS'Alison Spedding'
p533
asS'Jenny Morton'
p534
(lp535
g233
ag457
ag72
ag169
ag341
asS'Hannah Monyer'
p536
(lp537
S'Annie Meinertzhagen'
p538
ag64
ag68
ag66
ag508
asS'Elissa P. Benedek'
p539
(lp540
g207
aS'Amanda Weltman'
p541
ag106
ag104
aS'Elizabeth and Mary Kirby'
p542
asS'Claudia Zaslavsky'
p543
(lp544
g423
aS'Regna Darnell'
p545
ag331
ag3
ag6
asg17
(lp546
g15
ag20
ag21
ag384
ag89
asS'Amalie Dietrich'
p547
(lp548
g510
aS'Jane Gibson'
p549
ag132
aS'Eva Verbitsky Hunt'
p550
ag66
asg371
(lp551
g18
ag107
ag549
aS'Michiyo Tsujimura'
p552
ag21
asg225
(lp553
g208
ag224
ag207
ag222
ag476
asS'Margaret Blackwood'
p554
(lp555
g87
aS'Victoria Kaspi'
p556
aS'Sue Savage-Rumbaugh'
p557
aS'Cathrine Hasse'
p558
ag468
asS'France Winddance Twine'
p559
(lp560
g288
aS'Susan Irene Rotroff'
p561
ag7
aS'France Martineau'
p562
aS'Louise Leakey'
p563
asS'Lei Jieqiong'
p564
(lp565
S'Lydia Giberson'
p566
ag414
aS'Joan Halifax'
p567
aS'Wendy Fonarow'
p568
ag183
asg463
(lp569
S'Fadwa El Guindi'
p570
ag462
ag269
aS'Priscilla Reining'
p571
aS'Annamaria Orla-Bukowska'
p572
asS'Lubna Tahtamouni'
p573
(lp574
S'Alexandra David-N\xc3\xa9el'
p575
aS'Dorothy Blum'
p576
aS'Greta Stevenson'
p577
aS'Emily Lakdawalla'
p578
aS'Susan Bailey'
p579
asS'Anna Curtenius Roosevelt'
p580
(lp581
S'Anita \xc3\x81lvarez de Williams'
p582
ag241
ag243
ag244
ag438
asS'Sally Larsen'
p583
(lp584
S'Edith Turner'
p585
aS'Susan Gal'
p586
ag61
aS'Caroline Moser'
p587
ag63
asS'Lydia Cabrera'
p588
(lp589
S'Leyla Neyzi'
p590
aS'Ruth DeEtte Simpson'
p591
aS'Danijela Stefanovi\xc4\x87'
p592
ag87
aS'Danielle Stordeur'
p593
asg156
(lp594
g508
ag557
ag93
ag46
aS'D\xc3\xa9bora Diniz'
p595
asg452
(lp596
g450
ag448
aS'Ella Cara Deloria'
p597
ag319
aS'Computer Engineer Barbie'
p598
asg325
(lp599
S'May Smith'
p600
ag468
ag195
aS'Adeyinka Gladys Falusi'
p601
aS'Kate Devlin'
p602
asg96
(lp603
g94
ag95
aS'Florinda Donner'
p604
ag90
ag568
asS'Loretta Marron'
p605
(lp606
S'Virginia Grace'
p607
aS'Audrey Butt Colson'
p608
ag395
aS'Phyllis Williams Lehmann'
p609
ag32
asg126
(lp610
g173
ag557
aS'Elizabeth Laird'
p611
ag123
ag96
asS'Ulrike Beisiegel'
p612
(lp613
S'Elizabeth Spillius'
p614
ag227
aS'Ethel Bellamy'
p615
aS'Mariza Corr\xc3\xaaa'
p616
aS'Marija Gimbutas'
p617
asS'Una M. Ryan'
p618
(lp619
S'Zainab Bahrani'
p620
ag197
aS'Susannah Fox'
p621
aS'Maria Carmela Lico'
p622
aS'Florence Margaret Durham'
p623
asg283
(lp624
S'Felicitas Goodman'
p625
ag280
ag495
aS'Anne Allison'
p626
aS'Hortense Powdermaker'
p627
asS'Judith E. Glaser'
p628
(lp629
S'Lyla Pinch Brock'
p630
ag488
ag489
aS'Marcela Lagarde'
p631
aS'Elizabeth Burgos'
p632
asS'Kono Yasui'
p633
(lp634
g600
ag115
aS'Kira Hall'
p635
ag517
aS'Yin Yin Nwe'
p636
asg258
(lp637
g256
ag423
ag88
ag62
aS'Madeleine Pelletier'
p638
asS'Leela Dube'
p639
(lp640
g99
aS'Charlotte Lewis'
p641
ag447
aS'Heather Burke'
p642
aS'Hannah Marie Wormington'
p643
asg397
(lp644
S'Jean Swank'
p645
ag430
ag244
ag245
ag458
asS'Anna Lou Dehavenon'
p646
(lp647
S'Constance Ellis'
p648
aS'Meena Upadhyaya'
p649
ag622
aS'Edith Hirsch'
p650
ag324
asS'Nathalie Beaux-Grimal'
p651
(lp652
S'Marianne Gullestad'
p653
aS'Aud Talle'
p654
ag376
ag125
ag620
asS'Justina Ford'
p655
(lp656
g552
aS'Sofia Simmonds'
p657
aS'Ruth Lyttle Satter Prize in Mathematics'
p658
ag225
ag266
asS'Margaret Hasluck'
p659
(lp660
g94
ag95
ag64
aS'Gina Athena Ulysse'
p661
ag40
asS'Emiliana Cruz'
p662
(lp663
g519
aS'June Nash'
p664
ag470
aS'Carmel Schrire'
p665
aS'Jeanne Guillemin'
p666
asS'Regula Tschumi'
p667
(lp668
S'Graciela Chichilnisky'
p669
aS'Lesley Gill'
p670
aS'Catherine Morgan'
p671
aS'Cristina R\xc3\xa9mond'
p672
aS'Susan E. Alcock'
p673
asg113
(lp674
g112
ag114
ag110
ag428
ag88
asS'Sarah J. Mahler'
p675
(lp676
S'Virginia R. Dom\xc3\xadnguez'
p677
aS'Carol Meyers'
p678
aS'Galina Starovoytova'
p679
ag127
ag3
asS'Deborah Fouts'
p680
(lp681
g72
aS'Eleanora Knopf'
p682
ag678
ag534
ag49
asS'List of female Fellows of the Royal Society'
p683
(lp684
S'Edith Humphrey'
p685
aS'Matilda Coxe Stevenson'
p686
ag372
ag456
aS'Alison Galloway'
p687
asS'Jane Ellen Buikstra'
p688
(lp689
g25
ag462
aS'Paloma Gay y Blasco'
p690
aS'Ziba Mir-Hosseini'
p691
ag464
asS'Janet Davidson'
p692
(lp693
S'Anne Stine Ingstad'
p694
ag4
aS'Charlotte Booth'
p695
ag685
ag414
asS'June Helm'
p696
(lp697
S'Elizabeth Warnock Fernea'
p698
aS'Ruth Behar'
p699
aS'Beatrice Medicine'
p700
aS'Ineke van Wetering'
p701
aS'Elizabeth J. Feinler'
p702
asS'Maria Reiche'
p703
(lp704
g567
ag120
ag564
ag341
ag679
asS'Pearl Primus'
p705
(lp706
g137
aS'Diana Kirkbride'
p707
ag148
aS'Elizabeth Colson'
p708
ag678
asS'Agnes Conway'
p709
(lp710
g398
ag661
aS'Setha Low'
p711
aS'Tsuruko Haraguchi'
p712
aS'Luisa Maffi'
p713
asS'Luisa Accati'
p714
(lp715
S'Grethe Rytter Hasle'
p716
aS'Juliet Morrow'
p717
aS'Carolyn M. Heighway'
p718
aS'Hilde Frafjord Johnson'
p719
aS'Pauline Turner Strong'
p720
asS'Anna Marguerite McCann'
p721
(lp722
g162
ag215
ag88
aS'Wendy Ashmore'
p723
ag92
asg395
(lp724
g33
ag166
ag410
ag144
ag336
asS'Elizabeth Alexander'
p725
(lp726
S'Heather C. Allen'
p727
aS'Elisa Oricchio'
p728
ag414
ag52
ag120
asS'Sydel Silverman'
p729
(lp730
g5
ag3
aS'Raquel Brailowsky'
p731
aS'Yeda Pessoa de Castro'
p732
ag421
asg317
(lp733
g315
ag318
ag190
ag308
ag319
asS'Safi Faye'
p734
(lp735
g430
aS'Cynthia Larive'
p736
ag64
aS'Mary Elizabeth Barber'
p737
aS'Myrtle Bachelder'
p738
asS'Jocelyn Toynbee'
p739
(lp740
S'Marcia McNutt'
p741
aS'Doris Mackinnon'
p742
ag488
ag489
aS'Sinah Estelle Kelley'
p743
asg531
(lp744
S'Julia Morton'
p745
ag529
aS'Mary Frances Winston Newson'
p746
ag360
aS'Terry Plank'
p747
asS'Nancy Dupree'
p748
(lp749
g567
ag62
aS'Regina Bendix'
p750
ag423
aS'Catherine Lutz'
p751
asS'Kari Bruwelheide'
p752
(lp753
g602
aS'M\xc3\xb3nica Bettencourt-Dias'
p754
ag52
aS'Am\xc3\xa9lie Kuhrt'
p755
ag711
asg576
(lp756
g573
ag579
ag53
ag42
ag539
asg597
(lp757
g319
ag39
ag452
ag308
aS'Phyllis Morse'
p758
asg630
(lp759
g628
ag138
aS'Lisa Rofel'
p760
ag319
ag711
asS'Sada Mire'
p761
(lp762
g189
ag452
ag319
ag598
aS'Tebello Nyokong'
p763
asg391
(lp764
g62
ag235
ag298
ag7
ag61
asg462
(lp765
g463
ag571
ag269
ag572
ag464
asS'Margaret Reed Lewis'
p766
(lp767
g262
ag263
ag264
ag265
ag266
asg362
(lp768
S'Laurence Tubiana'
p769
aS'Beryl Esembe'
p770
aS'Mary Catherine Ferguson'
p771
ag751
ag358
asg235
(lp772
g723
ag423
ag88
ag62
ag638
asS'Audrey Arnott'
p773
(lp774
g524
aS'Ida Barney'
p775
ag173
ag64
ag421
asg330
(lp776
g326
aS'Marie-Fran\xc3\xa7oise Gu\xc3\xa9don'
p777
ag507
ag309
ag181
asS'Mary Ann Ochota'
p778
(lp779
g131
ag495
ag32
ag571
ag572
asS'Nathalie Cabrol'
p780
(lp781
S'Elisabeth Croll'
p782
aS'Susan D. Gillespie'
p783
ag272
ag497
ag386
asS'M\xc3\xb3nica Pellecer Alecio'
p784
(lp785
S'Brigitte B\xc3\xb6nisch-Brednich'
p786
ag120
ag107
aS'Johnnetta B. Cole'
p787
ag671
asS'Delphine Parrott'
p788
(lp789
S'Emmy Noether'
p790
aS'Marguerite Lehr'
p791
ag407
aS'Ida Freund'
p792
ag177
asS'Winifred Brunton'
p793
(lp794
g262
ag263
ag264
ag265
ag266
asS'Erna Gunther'
p795
(lp796
g508
ag403
aS'Katharina Galor'
p797
aS'Annette Laming-Emperaire'
p798
ag95
asS'Maria Fadiman'
p799
(lp800
g284
ag133
ag63
ag195
ag620
asS'Ursula McConnel'
p801
(lp802
g269
aS'Kelly Dixon'
p803
ag72
ag277
ag751
asS'Lisa Rossbacher'
p804
(lp805
g33
aS'Kathrin Barboza Marquez'
p806
ag430
ag501
ag483
asS'Adriana Hoffmann'
p807
(lp808
g182
aS'Helen Boyle'
p809
ag200
aS'Brenda Andrews'
p810
ag513
asS'Nancy Marcus'
p811
(lp812
g167
ag166
ag145
ag451
ag188
asg120
(lp813
g787
ag786
aS'Phyllis Kaberry'
p814
ag423
ag74
asS'Micaela Portilla'
p815
(lp816
g94
ag95
ag709
ag175
ag96
asg368
(lp817
g92
ag481
aS'Cleo Odzer'
p818
aS'Joyce Marcus'
p819
aS'Rita Harradence'
p820
asg31
(lp821
g620
aS'Mary M. Crawford'
p822
aS'Leith Mullings'
p823
ag258
ag423
asg447
(lp824
g62
ag750
ag444
ag423
ag258
asS'Hilde Levi'
p825
(lp826
S'Martha L. Ludwig'
p827
aS'Margery C. Carlson'
p828
ag187
ag450
ag448
asS'Ruth Cardoso'
p829
(lp830
g173
ag595
aS'Karimat El-Sayed'
p831
ag277
ag557
asS'Judith Roitman'
p832
(lp833
g10
ag370
aS'Margaret Allen'
p834
aS'Anne Rudloe'
p835
aS'Ella Sophia Armitage'
p836
asg723
(lp837
g131
ag235
ag423
ag88
ag62
asg504
(lp838
g340
ag337
ag137
ag534
aS'Kong Tai Heong'
p839
asS'Nicky Milner'
p840
(lp841
g288
aS'Gladys Reichard'
p842
ag524
ag137
ag568
asg239
(lp843
g195
ag133
ag719
ag578
aS'Christiane Ziegler'
p844
asS'Ruth Hill Useem'
p845
(lp846
S'Gayle Rubin'
p847
ag482
ag187
ag664
aS'Kathleen Kenyon'
p848
asS'Kristen R. Ghodsee'
p849
(lp850
g337
ag501
aS'Margarethe Lenore Selenka'
p851
ag335
ag133
asS'Dean Falk'
p852
(lp853
g571
ag625
aS'Marina Cunin'
p854
aS'Tina Cooper'
p855
ag495
asS'Claire Barratt'
p856
(lp857
g353
ag355
ag133
ag194
ag620
asS'Sherry Ortner'
p858
(lp859
S'Karolyn Smardz Frost'
p860
ag288
ag632
aS'Wilhelmina Feemster Jashemski'
p861
ag341
asS'Erica Lehrer'
p862
(lp863
g653
ag651
ag847
ag620
ag823
asS'Rose Mary Allen'
p864
(lp865
g72
ag61
ag41
aS'Gene Weltfish'
p866
ag806
asS'Rosemary Biggs'
p867
(lp868
S'Lixia Zhang'
p869
ag389
ag64
ag342
ag343
asS'Estelle Lazer'
p870
(lp871
S'Anne Salmond'
p872
ag137
ag138
ag604
ag798
asg95
(lp873
g94
ag96
ag90
ag92
aS'Elizabeth Wayland Barber'
p874
asg182
(lp875
g809
ag200
ag370
aS'Rachel MacNair'
p876
ag745
asS'Myeong-Hee Yu'
p877
(lp878
S'Hermine Hartleben'
p879
ag450
ag448
ag118
ag597
asS'Elaine Didier'
p880
(lp881
S'Mary Cabot Wheelwright'
p882
ag108
ag430
ag649
ag160
asS'Margaret Lock'
p883
(lp884
g508
aS'Ana Mar\xc3\xada Groot'
p885
aS'Nancy Romero-Daza'
p886
aS'Gertrude Bell'
p887
aS'Kim Yeshi'
p888
asg318
(lp889
g678
ag679
aS'Sabina Magliocco'
p890
ag315
ag317
asg266
(lp891
g488
ag489
ag655
aS'Marjan Mashkour'
p892
aS'Ruth Shady'
p893
asg464
(lp894
g61
ag194
ag131
ag27
ag59
asS'Arfa Karim'
p895
(lp896
g221
aS'Patricia Numann'
p897
aS'Gertrude M. Godden'
p898
ag549
ag133
asS'Myra Keen'
p899
(lp900
S'Janet Carr'
p901
ag201
ag183
ag657
ag658
asg328
(lp902
g137
ag45
aS'Ruth Underhill'
p903
ag6
ag49
asS'Naomi Sager'
p904
(lp905
g468
aS'Nora Lilian Alcock'
p906
aS'Frances Oldham Kelsey'
p907
ag241
ag243
asg166
(lp908
g164
ag395
ag342
ag343
ag102
asS'Anna Baetjer'
p909
(lp910
g591
ag571
aS'Kris L. Hardin'
p911
ag625
ag493
asg879
(lp912
g877
ag450
ag448
ag118
ag597
asg376
(lp913
g653
ag651
aS'Ursula Cowgill'
p914
ag864
aS'Dorothea Bleek'
p915
asg221
(lp916
g897
aS"Frances D'Souza, Baroness D'Souza"
p917
ag254
ag282
ag109
asg420
(lp918
g148
ag732
ag102
ag423
ag751
asg783
(lp919
g63
ag272
aS'Nina Gagen-Torn'
p920
ag59
ag57
asS'Mary Katharine Brandegee'
p921
(lp922
g370
ag809
ag182
aS'Honor Smith'
p923
ag200
asg585
(lp924
g620
ag823
ag372
ag583
ag284
asS'Grace Bates'
p925
(lp926
S'Erminie Wheeler-Voegelin'
p927
ag702
ag893
aS'Ethel Thomas'
p928
aS'Linda Preiss Rothschild'
p929
asg131
(lp930
g27
ag723
ag32
ag495
ag778
asg62
(lp931
g750
ag423
ag751
ag88
ag677
asS'Emer Jones'
p932
(lp933
S'Colleen Cavanaugh'
p934
ag244
ag337
ag245
ag207
asS'Orly Goldwasser'
p935
(lp936
g278
aS'Irit Ziffer'
p937
ag395
ag166
ag232
asS'Sara Branham Matthews'
p938
(lp939
g818
aS'Angana P. Chatterji'
p940
aS'Karen Ho'
p941
ag623
ag435
asS'Meredith Small'
p942
(lp943
g106
aS'He Zehui'
p944
ag272
aS'Anne Macaulay'
p945
ag497
asS'Alana Cordy-Collins'
p946
(lp947
g337
ag244
ag245
ag458
aS'Alice E. Gillington'
p948
asg575
(lp949
g573
ag85
ag626
ag571
ag625
asg623
(lp950
g941
aS'Margaret Rule'
p951
ag175
aS'Martha Warren Beckwith'
p952
ag618
asg278
(lp953
g602
ag754
aS'Ioana Dumitriu'
p954
ag72
ag712
asS'Natasha Falle'
p955
(lp956
g188
ag761
aS'Dorothy King'
p957
ag450
ag448
asS'Mona Bhan'
p958
(lp959
g269
aS'Nita Kumar'
p960
aS'Huda Zoghbi'
p961
aS'Elizabeth Brumfiel'
p962
ag572
asg920
(lp963
g62
aS'Caroline Furness Jayne'
p964
ag63
ag750
ag272
asg712
(lp965
g602
ag148
ag193
ag194
ag259
asS'Genevieve Grotjan Feinstein'
p966
(lp967
g577
ag571
ag625
ag855
ag495
asS'Ruth Bunzel'
p968
(lp969
g476
aS'Kirsten Hastrup'
p970
ag353
ag149
ag160
asS'Eva Justin'
p971
(lp972
g508
ag874
ag156
aS'Jacquetta Hawkes'
p973
ag595
asS'Lourdes Guti\xc3\xa9rrez N\xc3\xa1jera'
p974
(lp975
g423
ag270
ag162
ag568
ag235
asg760
(lp976
g137
aS'Susan M. Ervin-Tripp'
p977
ag127
ag675
ag138
asS'Harriet Boyd-Hawes'
p978
(lp979
S'Halleh Ghorashi'
p980
aS'Vilma Sindona Eichholz'
p981
aS'Muazzez \xc4\xb0lmiye \xc3\x87\xc4\xb1\xc4\x9f'
p982
ag148
ag507
asS'Jacqueline Crawley'
p983
(lp984
S'Catherine A. Lozupone'
p985
aS'Galia Sabar'
p986
ag769
ag929
aS'Christian Ramsay'
p987
asS'Margaret Newton'
p988
(lp989
g225
ag224
aS'Stephanie Burns'
p990
ag222
ag277
asS'Riane Eisler'
p991
(lp992
g50
ag331
ag28
aS'Gloria Long Anderson'
p993
aS'Frances Ames'
p994
asg38
(lp995
S'Kathrine S. French'
p996
ag299
ag36
ag411
ag73
asS'Karen Nakamura'
p997
(lp998
g329
aS'Lorene Rogers'
p999
ag38
ag244
ag245
asg497
(lp1000
S'Germaine Tillion'
p1001
ag272
ag131
aS'Norma Mendoza-Denton'
p1002
ag386
asS'Helen Leach'
p1003
(lp1004
g262
ag263
ag264
ag265
ag266
asg977
(lp1005
g760
ag39
ag870
ag675
ag31
asS'Makaziwe Mandela'
p1006
(lp1007
S'Sophie Bledsoe Aberle'
p1008
ag903
ag49
ag858
ag43
asS'Carol Delaney'
p1009
(lp1010
S'Tami Bond'
p1011
ag272
ag63
ag920
ag53
asS'Gillian Hanson'
p1012
(lp1013
S'L\xc3\xadvia J\xc3\xa1r\xc3\xb3ka'
p1014
ag64
ag372
aS'Malathi de Alwis'
p1015
ag52
asS'Helene J. Kantor'
p1016
(lp1017
S'Zena Werb'
p1018
ag118
ag288
ag149
ag741
asS'Jane S. Richardson'
p1019
(lp1020
g568
ag200
ag276
ag183
ag64
asg473
(lp1021
g194
ag269
ag353
ag423
aS'Anne Zeller'
p1022
asg133
(lp1023
g195
ag620
ag131
ag823
ag353
asS'Homa Hoodfar'
p1024
(lp1025
g893
ag743
aS'Margaret Ursula Jones'
p1026
aS'Anne Beloff-Chain'
p1027
ag106
asS'Lady Hester Stanhope'
p1028
(lp1029
S'Keewaydinoquay Peschel'
p1030
ag39
ag890
ag870
ag736
asS'Jeanne Lampl-de Groot'
p1031
(lp1032
g106
aS'Liza Dalby'
p1033
ag226
ag52
aS'Bencie Woll'
p1034
asg6
(lp1035
S'Rica Erickson'
p1036
ag137
ag679
ag307
ag638
asS'Joan Curran'
p1037
(lp1038
S'Thyrsa Frazier Svager'
p1039
ag438
ag737
ag738
aS'Marjorie G. Horning'
p1040
asS'Anna Maria Bietti Sestieri'
p1041
(lp1042
g519
ag1015
ag132
aS'Doris Bartholomew'
p1043
ag359
asS'Mary Strong Clemens'
p1044
(lp1045
g64
ag366
ag77
ag309
ag903
asg915
(lp1046
g131
aS'Elsie Clews Parsons'
p1047
aS'Dorothy Jean Ray'
p1048
ag194
ag590
asg803
(lp1049
g699
ag801
ag591
ag885
ag593
asS'Caroline Ransom Williams'
p1050
(lp1051
S'Katharine Way'
p1052
ag743
ag1026
ag739
aS'\xc3\x89va P\xc3\xb3cs'
p1053
asS'Yoky Matsuoka'
p1054
(lp1055
S'Mary Buckland'
p1056
ag620
ag353
ag355
ag133
asg906
(lp1057
g323
ag193
ag602
aS'Leela Hazzah'
p1058
ag746
asS'Josephine Tilden'
p1059
(lp1060
g254
ag282
ag1050
ag1052
ag885
asS'Nancy T. Chang'
p1061
(lp1062
S'Doris Calloway'
p1063
ag601
aS'Elena Georgieva'
p1064
ag194
ag259
asS'Adrienne L. Kaeppler'
p1065
(lp1066
S'Caterina Magni'
p1067
aS'Leona Woods'
p1068
ag519
ag363
ag175
asS'Vibha Tripathi'
p1069
(lp1070
g814
ag50
ag120
ag439
ag63
asS'Jane Dieulafoy'
p1071
(lp1072
g428
ag112
ag113
aS'Teresa Gim\xc3\xa9nez Barbat'
p1073
ag27
asg557
(lp1074
g87
ag595
ag831
ag695
aS'Carol Chomsky'
p1075
asS'Lydia White'
p1076
(lp1077
g62
ag750
ag6
ag423
aS'Anna Tsing'
p1078
asg74
(lp1079
S'Jean Bacon'
p1080
ag61
ag194
ag353
ag271
asg787
(lp1081
g120
ag423
ag814
ag748
ag48
asS'Esther Schiff Goldfrank'
p1082
(lp1083
g3
ag125
ag94
ag95
ag631
asS'Gladys Tantaquidgeon'
p1084
(lp1085
S'Germaine Dieterlen'
p1086
ag420
ag686
ag526
aS'Sarah Parcak'
p1087
asg66
(lp1088
g64
aS'Eva-Maria Neher'
p1089
ag166
ag137
ag102
asS'Helen Perlstein Pollard'
p1090
(lp1091
g654
ag103
ag288
ag189
ag1086
asg52
(lp1092
g272
ag284
ag133
ag104
ag372
asS'Janet Watson'
p1093
(lp1094
g806
ag472
aS'Lydia Becker'
p1095
ag601
aS'Nina Starr Braunwald'
p1096
asS'Anna Sadurska'
p1097
(lp1098
g1001
ag226
ag434
ag156
aS'Olga F. Linares'
p1099
asS'Naomi McClure-Griffiths'
p1100
(lp1101
g272
ag497
ag386
ag254
aS'In-Young Ahn'
p1102
asg121
(lp1103
g842
ag524
ag567
ag331
ag3
asg860
(lp1104
g420
ag127
ag125
ag92
ag679
asg993
(lp1105
g994
aS'Helen Mayo'
p1106
ag431
ag432
ag169
asS'Elizabeth Fentress'
p1107
(lp1108
g561
ag319
ag350
ag488
ag489
asg396
(lp1109
g270
ag393
aS'Salima Ikram'
p1110
aS'Katharine Elizabeth Dopp'
p1111
aS'Hilary du Cros'
p1112
asg549
(lp1113
S'Ruth Sawtell Wallis'
p1114
ag371
ag337
ag948
ag1027
asg1008
(lp1115
S'Marilyn Strathern'
p1116
ag45
aS'Chie Nakane'
p1117
ag76
ag527
asS'Lynne P. Sullivan'
p1118
(lp1119
g127
ag64
ag472
ag732
ag40
asg219
(lp1120
g218
ag216
ag220
ag32
ag221
asS'Kathleen Gough'
p1121
(lp1122
g28
ag328
aS'Birut\xc4\x97 Galdikas'
p1123
ag360
ag906
asg200
(lp1124
g182
ag809
ag996
ag1114
ag10
asS'Eliza Ann Grier'
p1125
(lp1126
S'Vronwy Hankey'
p1127
ag982
ag844
ag670
aS'Mai Yamani'
p1128
asS'Mary Frere'
p1129
(lp1130
g1110
ag272
ag131
aS'Jolan Babus'
p1131
ag27
asg430
(lp1132
S'Vera Fedorovna Gaze'
p1133
ag33
ag244
ag245
ag882
asg415
(lp1134
g514
ag66
ag675
ag468
aS'Hannah Valantine'
p1135
asg615
(lp1136
S'Magdalena Bermejo'
p1137
ag33
aS'Lucie Randoin'
p1138
aS'Sarah Spiegel'
p1139
ag104
asS'Claudia Roden'
p1140
(lp1141
g122
ag686
aS'Lida Shaw King'
p1142
ag120
aS'Constanza Ceruti'
p1143
asg100
(lp1144
g92
ag161
ag423
ag85
ag695
asS'Karen Holford'
p1145
(lp1146
S'Marsha Looper'
p1147
aS'Val Curtis'
p1148
aS'Doris Huestis Speirs'
p1149
ag1069
ag487
asS'Kate Fox'
p1150
(lp1151
g292
ag310
ag318
ag420
ag996
asS'Heather Pringle'
p1152
(lp1153
S'Helen Codere'
p1154
aS'Heleen Sancisi Weerdenburg'
p1155
aS'Heather Levi'
p1156
ag642
ag643
asg303
(lp1157
g855
ag304
ag301
ag1040
aS'Sarah Bavly'
p1158
asg99
(lp1159
g625
ag495
ag88
ag62
ag723
asg923
(lp1160
g921
ag164
ag73
ag200
aS'Myra Adele Logan'
p1161
asS'Myrna Mack'
p1162
(lp1163
g85
ag661
aS'Birgitta Hoffmann'
p1164
ag156
ag508
asS'Aninhalli Vasavi'
p1165
(lp1166
S'Sidney Robertson Cowell'
p1167
aS'Patricia Barchas'
p1168
aS'Lorna Marshall'
p1169
ag137
ag631
asS'Christian Maclagan'
p1170
(lp1171
g723
ag654
ag258
ag423
ag131
asg1147
(lp1172
g1145
ag948
ag935
ag545
aS'Alice G. Dewey'
p1173
asS'Lois Jones'
p1174
(lp1175
g806
ag501
aS'Nalini Anantharaman'
p1176
aS'Halet \xc3\x87ambel'
p1177
ag21
asg561
(lp1178
g1150
aS'Nadia Abu El Haj'
p1179
ag1107
ag308
ag526
asS'Agn\xc3\xa8s Humbert'
p1180
(lp1181
g745
ag182
ag999
ag456
ag954
asg488
(lp1182
g489
ag741
ag742
ag901
ag448
asS'Kathy Reichs'
p1183
(lp1184
g1106
aS'Rosemary Firth'
p1185
ag552
aS'Maud Oakes'
p1186
aS'Cl\xc3\xa9mence Royer'
p1187
asS'June Chan'
p1188
(lp1189
S'Alice Alldredge'
p1190
ag1084
aS'Mary Louisa Willard'
p1191
ag1089
aS'Hilda Lockhart Lorimer'
p1192
asS'Edith Irby Jones'
p1193
(lp1194
g349
ag225
ag168
ag107
ag144
asS'V\xc3\xa9r\xc3\xa9na Paravel'
p1195
(lp1196
g88
ag115
ag421
ag69
ag125
asg1034
(lp1197
g1138
ag356
ag1018
ag224
ag222
asg465
(lp1198
g903
ag49
ag131
ag273
aS'Zs\xc3\xb3fia Torma'
p1199
asg161
(lp1200
g158
ag162
ag163
ag85
ag100
asS'Mary Cynthia Dickerson'
p1201
(lp1202
g834
aS'Mabel Cook Cole'
p1203
ag1089
ag68
ag389
asS'Suad Joseph'
p1204
(lp1205
g262
ag263
ag264
ag265
ag266
asS'Lissant Bolton'
p1206
(lp1207
g145
ag319
ag893
ag1179
aS'Marion Elizabeth Blake'
p1208
asS'Wendy Orent'
p1209
(lp1210
g319
ag452
aS'Ayten Ayd\xc4\xb1n'
p1211
ag190
ag561
asg982
(lp1212
g978
ag980
ag886
ag719
ag148
asg758
(lp1213
g597
ag450
ag448
ag288
ag901
asg459
(lp1214
g527
ag454
ag391
ag526
ag319
asg322
(lp1215
g323
ag133
ag545
ag337
ag468
asg232
(lp1216
g341
ag229
ag937
aS'Lyn Miles'
p1217
ag1168
asS'Nessa Carey'
p1218
(lp1219
S'Jennifer Childs-Roshak'
p1220
ag224
ag156
ag508
ag328
asS'C\xc3\xa9cile DeWitt-Morette'
p1221
(lp1222
g262
ag263
ag264
ag265
ag266
asS'Jane Hamilton Hall'
p1223
(lp1224
S'Mary Dilys Glynne'
p1225
aS'Anna Johnson Pell Wheeler'
p1226
ag244
ag245
ag985
asS'Penny Wolin'
p1227
(lp1228
g177
ag1185
ag593
aS'Isabella Abbott'
p1229
ag888
asS'Catherine S. Fowler'
p1230
(lp1231
S'Charlotte Viall Wiser'
p1232
ag598
ag1177
ag248
aS'Hanna von Hoerner'
p1233
asg85
(lp1234
g87
ag874
ag161
ag277
ag174
asg68
(lp1235
g64
ag69
ag736
ag3
ag289
asS'Em\xc4\xablija Gudriniece'
p1236
(lp1237
g235
aS'Mary Loveless'
p1238
ag468
aS'Penny Sackett'
p1239
ag18
asg828
(lp1240
g760
aS'Ingeborg Hochmair'
p1241
ag308
ag469
ag741
asS'Lesley Fallowfield'
p1242
(lp1243
g138
ag73
ag415
ag184
ag166
asg745
(lp1244
g182
ag682
aS'Marie-Louise Lachapelle'
p1245
ag1180
ag746
asg286
(lp1246
g287
ag241
ag243
ag69
ag81
asg1203
(lp1247
g235
ag125
ag92
ag595
ag831
asS'Sondra Hale'
p1248
(lp1249
g194
ag133
ag571
ag572
aS'Gertrude Caton\xe2\x80\x93Thompson'
p1250
asS'Esther Somerfeld-Ziskind'
p1251
(lp1252
g92
aS'Gladys Anderson Emerson'
p1253
ag428
ag112
ag113
asg1142
(lp1254
g638
ag122
ag686
ag62
ag677
asg453
(lp1255
g234
ag451
ag118
ag414
ag431
asg552
(lp1256
g225
ag224
ag476
ag107
aS'Florence Connolly Shipek'
p1257
asg148
(lp1258
g102
ag712
aS'Kay Behrensmeyer'
p1259
ag384
ag420
asg1154
(lp1260
g1155
ag1152
ag1156
ag642
ag643
asS'Audrey Richards'
p1261
(lp1262
g161
ag158
ag162
ag163
ag62
asS'Esther de Pommery'
p1263
(lp1264
g672
ag60
ag783
ag55
ag56
asg1208
(lp1265
g927
ag45
aS'Patty Jo Watson'
p1266
ag903
ag49
asg770
(lp1267
g362
ag769
ag771
ag751
ag572
asg711
(lp1268
g602
ag712
ag709
ag752
ag755
asg205
(lp1269
g716
ag820
ag206
ag207
ag208
asS'Michelle Rosaldo'
p1270
(lp1271
g363
ag175
aS'Gayle J. Fritz'
p1272
aS'Jane I. Guyer'
p1273
ag114
asg411
(lp1274
g996
ag903
ag49
ag408
ag1089
asS'Jennie Patrick'
p1275
(lp1276
g32
ag218
ag216
ag219
ag220
asS'Nicole Loraux'
p1277
(lp1278
g262
ag263
ag264
ag265
ag266
asS'Berta Bobath'
p1279
(lp1280
g144
aS'Cecilia Krieger'
p1281
ag162
aS'Gertrude Van Wagenen'
p1282
ag468
asg184
(lp1283
S'Yolanda Murphy'
p1284
ag736
ag418
ag567
ag181
asg691
(lp1285
g464
ag571
ag572
ag221
ag272
asg307
(lp1286
g6
ag305
ag67
ag128
ag66
asg1001
(lp1287
g497
ag221
ag1158
ag156
ag272
asS'Margaret C. Snyder'
p1288
(lp1289
S'Elizaveta Karamihailova'
p1290
ag144
ag224
ag6
aS'Ilya Espino de Marotta'
p1291
asg911
(lp1292
g1250
ag194
ag1248
ag909
ag1261
asg631
(lp1293
g5
ag3
ag391
ag64
ag679
asg1048
(lp1294
S'Brackette Williams'
p1295
ag282
ag915
ag112
ag113
asS'Bettina Hauge'
p1296
(lp1297
S'Eugenie Scott'
p1298
ag40
ag308
ag38
ag288
asS'Dorothy Way Eggan'
p1299
(lp1300
g262
ag263
ag264
ag265
ag266
asS'Alison Wylie'
p1301
(lp1302
g973
ag115
ag602
ag494
ag279
asg831
(lp1303
g595
ag173
ag557
ag695
ag174
asS'Katherine Belov'
p1304
(lp1305
g184
ag183
ag1149
ag741
ag742
asg389
(lp1306
g166
ag996
ag200
ag164
ag408
asg1290
(lp1307
g137
ag932
ag139
ag534
ag934
asg945
(lp1308
g695
ag62
ag750
ag92
ag920
asg1199
(lp1309
S'Johanna Mestorf'
p1310
ag903
ag49
ag32
ag137
asS'Ivy Parker'
p1311
(lp1312
g638
ag235
ag383
ag611
aS'Xuemei Chen'
p1313
asg690
(lp1314
g464
ag25
ag428
ag112
ag113
asg582
(lp1315
g888
ag964
ag580
ag92
ag241
asg206
(lp1316
g510
ag418
ag419
ag205
aS'Alicia P. Magos'
p1317
asS'Audrey Terras'
p1318
(lp1319
S'Ada Hitchins'
p1320
ag289
ag136
ag651
ag578
asg747
(lp1321
g200
ag835
ag669
ag1114
ag746
asg609
(lp1322
g1131
ag1129
ag487
ag1110
aS'Marcia Theophilo'
p1323
asS'Carden Wallace'
p1324
(lp1325
g1102
ag395
ag737
ag738
ag923
asg1030
(lp1326
g1167
ag127
ag797
ag39
ag3
asg598
(lp1327
g452
ag319
ag315
ag317
ag189
asg1158
(lp1328
g888
ag304
ag1001
ag783
ag41
asS'Emiko Ohnuki-Tierney'
p1329
(lp1330
g462
ag463
ag1317
ag63
ag1177
asS'Dorothy Burr Thompson'
p1331
(lp1332
g348
ag686
ag1138
ag848
ag456
asg842
(lp1333
g3
ag80
ag1087
ag1179
ag411
asS'Sharon Claydon'
p1334
(lp1335
g132
ag367
ag673
aS'Lisa Curran'
p1336
ag860
asg650
(lp1337
g649
ag671
ag160
ag418
aS'Averil Mansfield'
p1338
asg771
(lp1339
g362
ag770
ag769
ag751
ag298
asg254
(lp1340
g282
ag782
ag86
ag112
ag113
asS'Elena Efimovna Kuzmina'
p1341
(lp1342
g125
ag276
ag638
aS'Carmen Baroja'
p1343
ag945
asg1036
(lp1344
g6
aS'Zdenka Samish'
p1345
ag137
ag138
ag96
asg144
(lp1346
g638
ag160
ag383
ag510
ag721
asg686
(lp1347
g118
ag1217
ag31
ag235
ag748
asg1073
(lp1348
g428
ag112
ag113
ag358
ag1071
asg996
(lp1349
g411
ag695
ag214
ag38
ag1217
asg59
(lp1350
g57
ag60
ag61
ag571
ag62
asg502
(lp1351
g173
ag104
ag174
ag1273
ag226
asS'Tanya Luhrmann'
p1352
(lp1353
S'Kathryn Ferguson Fink'
p1354
ag1114
ag398
ag677
ag205
asS'Barbara J. Heath'
p1355
(lp1356
g457
ag534
ag94
ag95
aS'Merrill Swain'
p1357
asS'Akiko Kobayashi'
p1358
(lp1359
g222
ag226
ag839
ag717
ag29
asS'Dian Fossey'
p1360
(lp1361
g521
ag106
ag510
ag717
ag337
asS'Dorothea Leighton'
p1362
(lp1363
S'Elizabeth Gray'
p1364
ag527
ag685
ag1284
ag1290
asS'Maud Cunnington'
p1365
(lp1366
g262
ag263
ag264
ag265
ag266
asg851
(lp1367
g173
aS'Mary Lura Sherrill'
p1368
ag849
ag483
ag705
asg643
(lp1369
g1154
ag1155
ag1152
ag1156
ag642
asS'Rae Bridgman'
p1370
(lp1371
g62
ag677
ag732
ag380
ag45
asg687
(lp1372
S'Audrey Smith'
p1373
ag683
aS'Marguerite Dupire'
p1374
ag1320
ag328
asS'K. Aslihan Yener'
p1375
(lp1376
g502
ag739
ag294
ag1364
aS'Seodi White'
p1377
asS'Mary Catherine Bateson'
p1378
(lp1379
g205
ag1317
ag206
ag207
ag304
asg514
(lp1380
g241
ag243
ag638
ag64
ag45
asg999
(lp1381
g52
ag150
aS'Jane Wynne'
p1382
ag106
ag104
asg292
(lp1383
g1345
ag1150
ag408
ag1036
ag522
asg458
(lp1384
g820
ag183
ag337
ag144
ag133
asg1190
(lp1385
g414
ag468
aS'Cecilia Bouzat'
p1386
ag517
ag438
asg937
(lp1387
g232
ag935
ag1177
ag166
ag164
asg541
(lp1388
g607
ag109
ag539
ag577
ag104
asg538
(lp1389
g508
ag79
aS'Mary Philadelphia Merrifield'
p1390
ag728
ag149
asg1382
(lp1391
g999
ag150
ag10
ag1192
aS'Marie-Louise Dubreil-Jacotin'
p1392
asg114
(lp1393
g112
ag113
ag115
ag110
ag428
asg119
(lp1394
g116
aS'Bridget Allchin'
p1395
ag507
aS'Sonia Mary Cole'
p1396
ag189
asg1148
(lp1397
g1040
ag31
ag430
ag1145
ag1190
asS'Lynne Kelly'
p1398
(lp1399
g6
ag102
ag410
ag621
ag500
asg483
(lp1400
g64
ag137
ag851
ag501
aS'Beatrice Blackwood'
p1401
asg775
(lp1402
g595
ag831
ag508
ag173
ag102
asg1396
(lp1403
S'Dawn Prince-Hughes'
p1404
ag1185
aS'Mercedes Doretti'
p1405
ag39
aS'Catherine Corrigan'
p1406
asg441
(lp1407
g21
aS'Tilly Edinger'
p1408
ag1199
ag367
ag866
asg708
(lp1409
g705
ag1298
ag890
aS'Gisela Bleibtreu-Ehrenberg'
p1410
ag326
asg60
(lp1411
g59
ag57
ag61
ag62
ag63
asS'Bambi Schieffelin'
p1412
(lp1413
g89
ag595
ag695
ag831
ag86
asS'Willie Hobbs Moore'
p1414
(lp1415
g200
ag1114
aS'Emily Temple-Wood'
p1416
ag657
ag658
asg224
(lp1417
g225
ag222
ag649
ag990
ag173
asg981
(lp1418
g978
ag980
ag148
ag1164
ag21
asg611
(lp1419
g337
ag1114
ag208
aS'Judith Vaitukaitis'
p1420
ag398
asS'Katya Gibel Mevorach'
p1421
(lp1422
g620
ag194
ag1152
ag1156
ag642
asg622
(lp1423
g620
ag197
ag1056
ag806
ag193
asS'Cecile Hoover Edwards'
p1424
(lp1425
g360
ag363
ag224
ag782
ag259
asg246
(lp1426
g247
ag241
ag243
ag244
ag245
asS'Carolyn Fluehr-Lobban'
p1427
(lp1428
g519
ag856
ag52
ag748
ag353
asg287
(lp1429
g286
ag241
ag243
ag69
ag81
asS'Maria Teschler-Nicola'
p1430
(lp1431
S'Faye Ginsburg'
p1432
ag310
ag1395
ag777
ag1087
asg819
(lp1433
g368
ag304
ag90
ag534
aS'Karen Mc Carthy Brown'
p1434
asS'Ann Bishop'
p1435
(lp1436
S'Diana Marcela Bola\xc3\xb1os Rodriguez'
p1437
ag741
ag742
aS'Helen Geake'
p1438
ag552
asg10
(lp1439
g1161
ag81
ag149
ag150
ag832
asg1239
(lp1440
g769
ag822
ag685
ag1281
ag1236
asS'S. Lochlann Jain'
p1441
(lp1442
g262
ag263
ag264
ag265
ag266
asg657
(lp1443
g658
ag389
ag145
ag552
ag371
asS'E. Gail de Planque'
p1444
(lp1445
g501
ag294
aS'Daphne Osborne'
p1446
ag1313
ag999
asg259
(lp1447
g194
ag356
ag353
ag355
ag193
asS'Maya Ha\xc3\xafdar Boustani'
p1448
(lp1449
g112
ag113
ag625
ag558
ag114
asg1026
(lp1450
g743
ag664
ag739
ag741
ag742
asg1257
(lp1451
g1078
ag1015
ag552
ag234
ag415
asg847
(lp1452
g112
ag113
ag874
ag221
ag558
asS'Laurette S\xc3\xa9journ\xc3\xa9'
p1453
(lp1454
g262
ag263
ag264
ag265
ag266
asg67
(lp1455
g64
ag69
ag421
ag120
ag3
asg25
(lp1456
g462
ag690
ag22
ag719
aS'Mildred Trotter'
p1457
asg233
(lp1458
g661
ag534
ag1161
ag115
ag229
asS'Katherine Dunham'
p1459
(lp1460
g262
ag263
ag264
ag265
ag266
asg169
(lp1461
g410
ag164
ag534
ag145
ag200
asS'Saba Mahmood'
p1462
(lp1463
S'Leonora Bilger'
p1464
ag403
ag707
ag18
ag137
asS'Frieda Robscheit-Robbins'
p1465
(lp1466
g244
ag245
ag510
ag144
ag160
asg1226
(lp1467
g717
ag1406
ag144
ag996
ag181
asg423
(lp1468
g62
ag750
ag751
ag235
ag88
asg375
(lp1469
g254
ag85
ag235
ag373
ag277
asg914
(lp1470
g927
ag131
ag27
ag376
aS'Laurel van der Wal'
p1471
asg1027
(lp1472
g19
ag21
ag408
ag549
ag407
asg928
(lp1473
g534
ag849
ag925
ag371
ag792
asS'Frances Ivens'
p1474
(lp1475
g769
ag235
ag1031
ag362
aS'Nathalie Luca'
p1476
asg489
(lp1477
g488
ag741
ag742
ag901
ag448
asg970
(lp1478
g635
ag636
ag166
ag755
ag108
asg309
(lp1479
g3
ag331
ag212
ag69
ag391
asg617
(lp1480
g72
ag590
ag786
ag197
ag363
asg670
(lp1481
g1127
ag112
ag113
ag298
ag114
asS'Rita El Khayat'
p1482
(lp1483
S'Lucy Suchman'
p1484
ag67
ag1408
ag421
ag120
asg1099
(lp1485
g495
ag1047
ag278
ag207
ag577
asg112
(lp1486
g113
ag114
ag110
ag428
ag88
asS'Annie Brisset'
p1487
(lp1488
g731
ag64
ag527
ag251
ag632
asg1298
(lp1489
g288
ag708
ag1296
ag310
ag1117
asg151
(lp1490
g810
ag1259
aS'Helen Porter'
p1491
ag423
ag728
asg1014
(lp1492
g1012
ag64
ag372
ag1015
ag52
asg1250
(lp1493
g911
ag335
ag194
ag1248
ag333
asg614
(lp1494
g612
ag227
ag615
ag616
ag617
asg952
(lp1495
S'Pamela Erickson'
p1496
ag941
ag623
ag1152
ag1156
asS'Susanne Schr\xc3\xb6ter'
p1497
(lp1498
g64
ag1143
ag677
ag122
ag258
asg578
(lp1499
g195
ag133
ag1056
ag239
ag52
asg1052
(lp1500
g1050
ag743
ag1026
ag739
ag1053
asg848
(lp1501
g1217
ag945
ag1343
aS'Catharine McClellan'
p1502
ag366
asg263
(lp1503
g181
ag169
aS'Shelly Errington'
p1504
ag895
ag14
asg92
(lp1505
g100
ag162
ag215
ag88
ag661
asS'Utako Okamoto'
p1506
(lp1507
g136
ag370
ag514
aS'Dorothy P. Rice'
p1508
ag1089
asg1135
(lp1509
g64
ag66
ag307
ag1420
ag568
asg590
(lp1510
S'Marilyn Houlberg'
p1511
ag72
ag194
ag464
ag621
asg167
(lp1512
g164
ag811
ag1241
ag68
ag342
asS'Nancy Turner'
p1513
(lp1514
g1377
ag181
ag835
ag72
ag294
asS'Veronica Seton-Williams'
p1515
(lp1516
S'Mizuko Ito'
p1517
ag888
ag112
ag113
ag625
asg572
(lp1518
g571
ag272
ag131
ag27
ag59
asg917
(lp1519
g221
ag915
ag720
ag273
ag591
asg892
(lp1520
g341
ag232
ag711
ag1030
ag631
asS'Marie-Claire Foblets'
p1521
(lp1522
g87
ag557
ag782
ag940
ag1338
asS'Grace Medes'
p1523
(lp1524
g80
ag324
ag81
ag270
ag379
asS'Kamal Ranadive'
p1525
(lp1526
g1149
ag665
ag144
ag705
ag200
asg1156
(lp1527
g1154
ag1155
ag1152
ag642
ag643
asg1127
(lp1528
g495
ag670
ag1496
ag587
ag1412
asg342
(lp1529
g343
ag166
ag167
ag395
ag513
asg1320
(lp1530
g21
ag1420
ag160
ag244
ag245
asg1233
(lp1531
g418
ag384
ag184
ag903
ag49
asg720
(lp1532
g1075
aS'Anne Chapman'
p1533
ag557
ag1076
aS'Ethel Bristowe'
p1534
asg827
(lp1535
g825
ag828
ag187
ag450
ag448
asg101
(lp1536
g92
ag258
ag118
ag638
ag127
asg208
(lp1537
g207
ag225
ag173
ag168
ag107
asg1502
(lp1538
g18
aS'Signithia Fordham'
p1539
ag122
ag21
aS'Louise Hay'
p1540
asg507
(lp1541
g978
ag980
ag69
ag1395
ag1084
asg810
(lp1542
g151
ag1259
ag1491
ag1149
ag1161
asg1011
(lp1543
g1009
ag272
ag63
ag920
ag53
asg1116
(lp1544
g1008
ag527
ag4
ag1534
ag1502
asg277
(lp1545
g85
ag88
ag87
ag92
ag112
asg1464
(lp1546
g3
ag69
ag102
ag522
ag64
asg1406
(lp1547
g1226
ag313
ag311
ag514
ag414
asg587
(lp1548
g1127
ag138
ag31
ag120
ag391
asg521
(lp1549
g107
ag168
ag206
ag209
ag166
asg103
(lp1550
g464
ag256
ag258
ag960
ag961
asg87
(lp1551
g85
ag557
ag277
ag174
ag88
asS'Olga Fedchenko'
p1552
(lp1553
g336
ag337
ag746
ag682
ag207
asg384
(lp1554
g148
ag89
ag17
ag695
ag600
asg40
(lp1555
g903
ag49
ag120
ag1030
ag1087
asS'Mary Lou Ridinger'
p1556
(lp1557
g262
ag263
ag264
ag265
ag266
asS'Linda M. Hunt'
p1558
(lp1559
g508
ag48
ag125
ag1186
aS'Jane Goodall'
p1560
asS'Martha Rhoads Bell'
p1561
(lp1562
g120
ag567
ag149
ag3
ag508
asS'Carenza Lewis'
p1563
(lp1564
g262
ag263
ag264
ag265
ag266
asS'Emeline Hill Richardson'
p1565
(lp1566
g308
ag597
ag235
ag319
ag1084
asg358
(lp1567
g356
ag1073
ag362
ag495
ag259
asg238
(lp1568
S'Ursula Graham Bower'
p1569
aS'Ingeborg Scheibler'
p1570
ag420
ag1517
ag236
asg450
(lp1571
g448
ag451
ag452
ag308
ag453
asg234
(lp1572
g453
ag414
ag679
ag1405
ag412
asg14
(lp1573
S'Nobuyo Maeda'
p1574
ag164
ag308
ag412
aS'Gerty Cori'
p1575
asg1173
(lp1576
g137
ag6
ag328
ag225
ag138
asS'Sohini Ray'
p1577
(lp1578
g262
ag263
ag264
ag265
ag266
asS'Penelope Wilson'
p1579
(lp1580
S'Mabel Lang'
p1581
ag282
ag74
aS'Linda Fierz-David'
p1582
ag964
asS'Monica Wilson'
p1583
(lp1584
g444
ag48
ag945
ag62
ag750
asg897
(lp1585
g254
ag221
ag282
ag1582
ag269
asg331
(lp1586
g69
ag423
ag568
ag3
aS'Mari Lyn Salvador'
p1587
asg435
(lp1588
g90
ag156
ag903
ag49
ag403
asS'Marjorie Hahn'
p1589
(lp1590
g1073
ag602
aS'Aleen Cust'
p1591
ag964
ag712
asg653
(lp1592
g651
ag376
ag620
ag823
ag862
asS'Judith Berman'
p1593
(lp1594
g760
ag319
ag340
ag665
ag308
asg1582
(lp1595
g282
ag897
ag492
ag221
ag462
asg716
(lp1596
g205
ag1420
ag335
ag638
ag336
asg1539
(lp1597
g1540
ag1502
ag820
ag1392
ag508
asg964
(lp1598
g920
ag100
ag92
ag53
ag277
asg1112
(lp1599
g686
ag600
ag52
aS'Alice Agogino'
p1600
ag679
asS'Marian Koshland'
p1601
(lp1602
g999
ag493
ag1064
ag1281
ag966
asS'Nina Frances Layard'
p1603
(lp1604
S'E. S. Drower'
p1605
ag1310
ag35
aS'Ann Fienup-Riordan'
p1606
ag112
asg468
(lp1607
g557
ag87
ag414
ag162
ag337
asg1291
(lp1608
g162
ag354
ag1587
ag886
ag156
asS'Alessandra Melucco Vaccaro'
p1609
(lp1610
g288
ag31
ag820
ag1392
ag650
asg472
(lp1611
g353
ag355
ag133
ag194
ag127
asS'Margherita Guarducci'
p1612
(lp1613
g1177
ag892
ag145
ag741
ag742
asg524
(lp1614
g1179
ag67
ag120
ag421
ag773
asg929
(lp1615
g987
aS'Shya Chitaley'
p1616
ag1034
ag925
ag983
asg1002
(lp1617
g131
ag497
ag495
ag778
ag1047
asS'Mariangela Lisanti'
p1618
(lp1619
g1259
ag549
ag1114
ag15
ag732
asS'Jean Comaroff'
p1620
(lp1621
g645
ag694
ag93
ag505
ag156
asg359
(lp1622
g356
ag133
ag131
ag497
ag52
asS'Edith Clements'
p1623
(lp1624
g74
ag425
ag421
ag27
ag782
asg379
(lp1625
g380
ag1374
ag695
ag125
ag210
asS'Daisy Bates'
p1626
(lp1627
g1534
ag127
ag1087
ag40
ag890
asg1131
(lp1628
S'Dina L\xc3\xa9vi-Strauss'
p1629
ag609
aS'Elsie MacGill'
p1630
ag1129
ag129
asS'Anna Czekanowska-Kukli\xc5\x84ska'
p1631
(lp1632
g277
ag85
ag174
ag87
aS'Virginia Abernethy'
p1633
asS'Erika Bourguignon'
p1634
(lp1635
S'Annie Marion MacLean'
p1636
ag48
ag829
ag564
aS'Ruth Amiran'
p1637
asS'Niara Sudarkasa'
p1638
(lp1639
g250
ag372
aS'Alice Ball'
p1640
ag94
ag95
asg323
(lp1641
g322
ag906
ag133
ag545
ag746
asg1587
(lp1642
g568
ag162
ag88
ag92
ag331
asS'Helen Freedhoff'
p1643
(lp1644
g13
ag1395
aS'Alice Bowman'
p1645
ag341
ag867
asg196
(lp1646
g844
ag191
aS'Brunilde Sismondo Ridgway'
p1647
ag1033
ag669
asg1068
(lp1648
g1067
ag1065
ag519
ag363
ag175
asg348
(lp1649
g1331
ag727
ag725
ag52
ag344
asS'Barbara Freire-Marreco'
p1650
(lp1651
S'Cynthia Irwin-Williams'
p1652
ag138
ag705
ag392
ag7
asg682
(lp1653
g906
ag323
ag745
ag680
aS'Judith Donath'
p1654
asg1317
(lp1655
S'Mary Emilie Holmes'
p1656
ag206
ag430
ag649
ag542
asg503
(lp1657
g104
ag109
ag501
ag208
ag897
asg1636
(lp1658
g48
ag751
ag43
ag526
ag1633
asg954
(lp1659
g602
ag702
ag278
ag232
ag712
asS'Hilary Kahn'
p1660
(lp1661
g106
ag244
ag430
ag245
ag107
asS'Myrna Gopnik'
p1662
(lp1663
g262
ag263
ag264
ag265
ag266
asg247
(lp1664
g246
ag241
ag243
ag244
ag245
asS'Margaret Mead'
p1665
(lp1666
g331
ag723
ag677
ag423
ag568
asg732
(lp1667
g420
ag5
ag814
aS"Kathleen O'Neal Gear"
p1668
ag69
asS'Layla AbdelRahim'
p1669
(lp1670
g126
ag488
ag489
ag319
ag901
asg115
(lp1671
g279
ag114
ag112
ag113
ag88
asg45
(lp1672
g423
ag751
ag69
ag331
ag157
asg107
(lp1673
g168
ag104
ag173
ag108
ag208
asS'Clare Selgin Wolfowitz'
p1674
(lp1675
g128
ag508
ag743
ag1026
ag1558
asS'Vivian Pinn'
p1676
(lp1677
g466
ag1404
ag164
ag182
ag145
asS'Hilda Lyon'
p1678
(lp1679
g1149
ag278
ag1138
ag835
ag810
asS'Anna Lomax Wood'
p1680
(lp1681
g593
ag57
ag534
aS'Myra Shackley'
p1682
ag885
asg34
(lp1683
g72
ag590
ag213
ag353
ag29
asg73
(lp1684
g127
ag80
ag632
ag167
ag465
asg869
(lp1685
g867
ag728
ag241
ag243
ag21
asS'Sara Yorke Stevenson'
p1686
(lp1687
g927
ag1629
ag718
ag148
ag151
asg658
(lp1688
g657
ag389
ag145
ag552
ag371
asS'Una Ryan'
p1689
(lp1690
g141
ag195
ag21
ag139
ag133
asS'Victoria Wyatt'
p1691
(lp1692
g262
ag263
ag264
ag265
ag266
asS'Beatrice Blyth Whiting'
p1693
(lp1694
g180
ag178
ag119
ag459
ag286
asg1185
(lp1695
g1155
ag1152
ag1156
ag642
ag643
asS'Dorothy D. Lee'
p1696
(lp1697
g1232
ag232
ag319
ag937
ag340
asg35
(lp1698
g144
ag791
ag427
ag162
ag402
asS'Rhoda Bubendey M\xc3\xa9traux'
p1699
(lp1700
g148
ag18
ag869
ag1368
ag568
asg347
(lp1701
g346
ag246
ag247
ag1656
ag241
asg1374
(lp1702
g379
ag380
ag88
ag157
ag3
asg174
(lp1703
g209
ag85
ag173
ag595
ag831
asS'Carol R. Ember'
p1704
(lp1705
g94
ag95
ag367
ag604
ag534
asg1616
(lp1706
g278
ag72
ag712
ag145
ag1036
asg457
(lp1707
g468
ag534
ag1111
ag1355
ag474
asS'Marianne N\xc3\xb8hr Larsen'
p1708
(lp1709
g262
ag263
ag264
ag265
ag266
asg579
(lp1710
g106
ag573
ag576
ag102
ag539
asg1238
(lp1711
g337
ag820
ag102
aS'Laura Forster'
p1712
ag258
asg1225
(lp1713
g1223
ag1226
ag244
ag245
ag985
asS'Norah Schuster'
p1714
(lp1715
g682
aS'Blanche Evans Dean'
p1716
ag1506
ag348
ag1406
asS'Jeanne Arnold'
p1717
(lp1718
g411
ag1199
ag67
ag1179
ag1168
asg154
(lp1719
g152
ag155
ag122
ag156
ag157
asS'Edith Durham'
p1720
(lp1721
g1301
ag99
aS'Clea Koff'
p1722
ag115
ag818
asg76
(lp1723
g797
ag212
ag661
ag48
ag420
asg172
(lp1724
g163
ag161
ag158
ag638
ag162
asS'Katy Gardner'
p1725
(lp1726
g265
ag507
ag698
ag1600
ag1128
asg1139
(lp1727
g161
ag214
ag1075
ag158
ag162
asg372
(lp1728
g52
ag197
aS'Gertrude Blom'
p1729
ag806
ag835
asS'Alba Zaluar'
p1730
(lp1731
g616
ag148
ag538
ag539
ag847
asg661
(lp1732
g92
ag233
ag751
ag1161
ag100
asg482
(lp1733
g241
ag243
ag430
ag438
ag245
asg125
(lp1734
g88
ag557
ag1343
ag123
ag277
asg592
(lp1735
g463
ag61
ag194
ag750
ag464
asS'Amber Case'
p1736
(lp1737
g1281
ag1310
ag1386
ag1253
ag113
asg874
(lp1738
g85
ag297
ag625
ag558
ag57
asS'Margaret Elizabeth Ashley-Towle'
p1739
(lp1740
g262
ag263
ag264
ag265
ag266
asS'Hallger\xc3\xb0ur G\xc3\xadslad\xc3\xb3ttir'
p1741
(lp1742
S'Heather Horst'
p1743
aS'Harriet Cosgrove'
p1744
ag310
ag527
aS'Mary Doria Russell'
p1745
asg294
(lp1746
g138
ag683
ag1313
ag1444
ag996
asg743
(lp1747
g1026
ag664
ag739
ag741
ag742
asg231
(lp1748
g620
ag823
ag229
ag133
ag368
asg1177
(lp1749
g177
ag420
ag127
ag814
ag937
asg118
(lp1750
g686
ag133
ag654
ag620
ag823
asg508
(lp1751
g538
ag156
ag728
ag1245
ag775
asg844
(lp1752
g133
ag193
ag195
ag620
ag501
asg269
(lp1753
g131
ag462
ag463
ag801
ag194
asS'Kathleen I. Pritchard'
p1754
(lp1755
g1281
ag144
ag934
ag737
ag738
asg872
(lp1756
g870
ag736
ag138
ag444
ag840
asS'Barbara Ward, Baroness Jackson of Lodsworth'
p1757
(lp1758
g670
ag682
ag746
ag514
ag737
asg388
(lp1759
g466
ag567
ag469
ag10
ag557
asg718
(lp1760
S'Eugenie Sellers Strong'
p1761
ag1448
ag672
ag888
ag112
asg1386
(lp1762
g1281
ag602
ag820
ag464
ag1736
asg1281
(lp1763
g1754
ag428
ag112
ag1736
ag113
asg1575
(lp1764
g14
ag145
ag514
ag169
ag851
asg227
(lp1765
g226
ag222
ag272
ag497
ag386
asg519
(lp1766
g133
ag620
ag823
ag353
ag74
asS'Madeline Kneberg Lewis'
p1767
(lp1768
g488
ag489
ag119
ag1107
aS'Barbara Harrell-Bond'
p1769
asg1652
(lp1770
g69
ag1169
ag120
ag522
ag1650
asS'Nina Jablonski'
p1771
(lp1772
g751
ag156
ag64
ag1102
ag66
asg1570
(lp1773
g5
ag675
ag679
ag1408
ag3
asg567
(lp1774
g748
ag122
ag3
ag64
ag945
asS'Suhayya Abu-Hakima'
p1775
(lp1776
g866
ag418
ag1075
ag728
ag419
asg855
(lp1777
g571
ag428
ag112
ag113
ag625
asS'Annie Nicolette Zadoks Josephus Jitta'
p1778
(lp1779
g235
ag100
ag415
ag721
ag67
asS'Zora Neale Hurston'
p1780
(lp1781
g1024
ag262
ag263
ag264
ag265
asS'Ilse Schwidetzky'
p1782
(lp1783
g686
ag1142
ag1084
ag62
ag1745
asg370
(lp1784
g182
ag832
ag921
ag1161
ag809
asS'Beatrice Worsley'
p1785
(lp1786
g21
ag1408
ag18
ag514
ag19
asg11
(lp1787
g81
ag999
ag567
ag1161
ag10
asg1078
(lp1788
g423
ag88
ag62
ag723
ag750
asg1075
(lp1789
g557
ag695
ag595
ag831
ag89
asg150
(lp1790
g104
ag149
ag173
ag999
ag10
asS'Sylvia Leith-Ross'
p1791
(lp1792
g1117
ag96
ag1217
ag340
ag232
asS'Amy H. Herring'
p1793
(lp1794
g68
ag69
aS'Catherine Clarke Fenselau'
p1795
ag81
ag1390
asg137
(lp1796
g1173
ag6
ag328
ag138
ag1199
asS'Abbie Lathrop'
p1797
(lp1798
g418
ag430
ag1317
ag611
ag206
asg1395
(lp1799
g341
ag507
ag1745
ag76
ag288
asg197
(lp1800
g622
ag372
ag806
ag193
ag52
asg1102
(lp1801
g806
ag620
ag823
ag193
ag197
asg5
(lp1802
g3
ag69
ag732
ag729
ag64
asg428
(lp1803
g112
ag113
ag1073
ag114
ag1071
asg1637
(lp1804
g973
aS'Caroline Malone'
p1805
ag1377
ag1634
ag48
asS'Taisha Abelar'
p1806
(lp1807
g262
ag263
ag264
ag265
ag266
asg1354
(lp1808
g1352
ag1114
ag398
ag677
ag205
asS'Deborah M. Pearsall'
p1809
(lp1810
g304
aS'Diane Harper'
p1811
ag844
ag602
ag360
asS'Clementina Panella'
p1812
(lp1813
g3
ag64
ag69
ag732
ag679
asg276
(lp1814
g638
ag274
ag88
ag379
ag125
asS'Terri Irwin'
p1815
(lp1816
g1729
ag372
ag492
aS'Agathe L. van Beverwijk'
p1817
ag532
asg427
(lp1818
g425
ag500
ag428
ag112
ag113
asS'Annemarie Mol'
p1819
(lp1820
g1432
ag435
ag1097
ag106
ag1408
asS'Rayna Rapp'
p1821
(lp1822
g951
ag847
ag89
ag1270
ag508
asg1161
(lp1823
g148
ag10
ag233
ag81
ag172
asg1769
(lp1824
g1179
ag1745
ag293
ag1652
ag1169
asg1534
(lp1825
g122
ag45
ag62
aS'Jovita Gonz\xc3\xa1lez'
p1826
ag125
asg492
(lp1827
g282
ag532
ag193
ag1582
ag100
asS'Helen Matusevich Oujesky'
p1828
(lp1829
g1487
ag835
ag318
ag948
ag679
asg556
(lp1830
g558
ag60
ag197
ag554
ag18
asg620
(lp1831
g823
ag193
ag194
ag133
ag27
asg769
(lp1832
g362
ag1239
ag770
ag771
ag751
asg1217
(lp1833
g89
ag88
ag848
ag1343
ag423
asg834
(lp1834
g1201
ag832
ag1110
ag420
ag1089
asg741
(lp1835
g742
ag1437
ag1435
ag1018
ag489
asg1110
(lp1836
g235
ag258
ag638
ag256
ag723
asg102
(lp1837
g148
ag88
ag235
ag400
ag423
asS'Astrid L\xc3\xb8ken'
p1838
(lp1839
g428
ag112
ag113
ag1073
ag177
asS'Olive Pink'
p1840
(lp1841
g1377
ag457
ag1236
ag743
ag1026
asS'Mabel Purefoy FitzGerald'
p1842
(lp1843
g1587
ag1064
ag517
ag181
ag331
asg194
(lp1844
g1155
ag1152
ag1156
ag642
ag643
asg542
(lp1845
g1317
ag205
ag539
ag207
ag541
asg132
(lp1846
g129
ag685
ag534
ag248
ag686
asS'Ruth Tringham'
p1847
(lp1848
g445
ag319
ag452
ag488
ag489
asg1761
(lp1849
g718
ag112
ag113
ag625
ag558
asg940
(lp1850
g719
ag1338
ag1133
ag430
ag435
asg501
(lp1851
g855
ag133
ag104
ag806
ag241
asg927
(lp1852
g914
ag1208
ag814
ag1471
ag59
asg402
(lp1853
g19
ag464
ag403
ag113
ag1310
asg406
(lp1854
g404
ag906
ag416
ag932
ag618
asS'Zelia Nuttall'
p1855
(lp1856
g262
ag263
ag264
ag265
ag266
asg713
(lp1857
g709
ag986
ag420
ag1420
ag398
asS'Lucy Goodison'
p1858
(lp1859
g1076
ag675
ag974
ag423
ag6
asg399
(lp1860
g844
ag195
ag133
ag239
ag300
asg279
(lp1861
g115
ag89
ag782
ag88
ag1412
asg1018
(lp1862
g52
ag741
ag742
ag501
ag1034
asg251
(lp1863
g133
ag898
ag620
ag1110
ag823
asg54
(lp1864
g50
ag212
ag127
ag1177
ag839
asg445
(lp1865
g1284
ag1847
ag1593
ag397
ag76
asg1095
(lp1866
g1245
ag468
ag514
ag241
ag243
asg188
(lp1867
g811
ag451
ag315
ag317
ag760
asg109
(lp1868
g500
ag160
ag104
ag108
ag541
asg106
(lp1869
g104
ag882
ag207
ag208
ag577
asS'Chika Kuroda'
p1870
(lp1871
g74
ag622
aS'Theresa Elmendorf'
p1872
ag1364
ag1581
asg264
(lp1873
S'Susan Hirsch'
p1874
ag1395
ag451
aS'Vera Rubin'
p1875
ag1609
asS'Vida Latham'
p1876
(lp1877
g1018
ag177
ag1227
ag109
ag602
asg1179
(lp1878
g310
ag524
ag1117
ag731
ag842
asg665
(lp1879
g308
ag3
aS'Salinee Tavaranan'
p1880
ag1410
ag1745
asg1826
(lp1881
g62
ag1534
ag127
ag120
ag927
asg1336
(lp1882
g1082
ag1186
ag743
ag1026
aS'Janet Bennion'
p1883
asg678
(lp1884
g675
ag258
ag318
ag705
ag890
asg297
(lp1885
g874
ag558
ag888
ag85
ag672
asg1192
(lp1886
g593
ag1382
ag999
aS'Evelyn M. Witkin'
p1887
ag586
asS'Marta Lamas'
p1888
(lp1889
g194
ag620
ag1421
ag823
ag353
asg1511
(lp1890
g590
ag63
ag945
ag617
ag72
asg1408
(lp1891
g403
ag21
ag791
ag1785
ag1482
asS'Cecilia Glaisher'
p1892
(lp1893
g52
ag24
ag108
ag593
ag1465
asg1606
(lp1894
g620
ag723
ag213
ag93
ag423
asS'Alice Gray'
p1895
(lp1896
S'Vera Lebedeva'
p1897
ag716
ag108
ag337
ag278
asg1047
(lp1898
g131
ag32
ag915
ag112
ag500
asg127
(lp1899
g472
ag675
ag212
ag423
ag679
asg1722
(lp1900
g775
ag384
ag600
ag1139
ag144
asg702
(lp1901
g954
ag156
ag1446
ag925
ag864
asg990
(lp1902
g224
ag225
ag52
ag282
ag888
asS'Debora Hammond'
p1903
(lp1904
S'Shereen Ratnagar'
p1905
ag1797
ag580
ag75
ag241
asS'Audrey Meaney'
p1906
(lp1907
g82
ag276
ag88
ag468
ag125
asg685
(lp1908
g751
ag132
ag1239
ag683
ag1540
asg1712
(lp1909
g820
ag1238
ag514
ag45
ag400
asg782
(lp1910
g254
ag282
ag780
ag279
ag280
asg1111
(lp1911
g457
ag982
ag507
ag731
ag7
asg493
(lp1912
g258
ag617
ag490
ag909
ag477
asg41
(lp1913
g1906
ag82
ag864
ag595
ag831
asg777
(lp1914
g128
ag526
ag309
aS'Mar\xc3\xada Elisa Vel\xc3\xa1zquez Guti\xc3\xa9rrez'
p1915
ag330
asS'Pamela C. Rasmussen'
p1916
(lp1917
g754
ag380
ag363
ag80
ag414
asg1343
(lp1918
g695
ag945
ag125
ag1217
ag848
asg1241
(lp1919
g182
ag167
ag68
ag414
ag948
asS'Olivia Harris'
p1920
(lp1921
g860
ag1266
ag977
ag777
ag293
asS'Joan Metge'
p1922
(lp1923
g262
ag263
ag264
ag265
ag266
asg669
(lp1924
g52
ag775
ag197
ag356
aS'Rosalind Moss'
p1925
asg1245
(lp1926
g600
ag508
ag149
ag1095
ag67
asg289
(lp1927
g107
ag68
ag3
ag166
ag80
asg1434
(lp1928
g996
ag367
ag439
ag94
ag95
asg19
(lp1929
g15
ag402
ag21
ag1164
ag407
asg80
(lp1930
g1523
ag842
ag64
ag69
ag289
asg94
(lp1931
g95
ag96
ag90
ag92
ag874
asg751
(lp1932
g423
ag62
ag750
ag1164
ag677
asg63
(lp1933
g272
ag59
ag783
ag920
ag57
asg48
(lp1934
g45
ag271
ag423
ag1636
ag277
asg432
(lp1935
g431
ag145
ag1390
ag308
ag453
asg1284
(lp1936
g184
ag64
ag69
ag414
ag567
asg570
(lp1937
g463
ag571
ag572
ag272
ag27
asg181
(lp1938
S'Jennifer Richeson'
p1939
ag244
ag289
ag245
ag419
asS'Betsy Bryan'
p1940
(lp1941
g951
ag1272
ag941
ag623
aS'Catherine L. Besteman'
p1942
asg1645
(lp1943
g1643
ag1395
ag67
ag870
ag8
asg149
(lp1944
g538
ag1245
ag150
ag508
ag671
asg46
(lp1945
g423
ag156
ag1533
ag235
ag62
asg220
(lp1946
g218
ag216
ag219
ag32
ag221
asg418
(lp1947
g419
ag510
ag206
ag717
ag650
asg562
(lp1948
g288
ag39
ag308
ag1168
ag1117
asg638
(lp1949
g88
ag723
ag383
ag213
ag258
asS'Margarete Zuelzer'
p1950
(lp1951
g1582
ag700
ag897
ag909
ag104
asg88
(lp1952
g214
ag423
ag89
ag112
ag113
asg1491
(lp1953
g810
ag151
aS'Margaret Windeyer'
p1954
ag1259
ag517
asS'Katharina C. Rebay'
p1955
(lp1956
g262
ag263
ag264
ag265
ag266
asS'Susan Visvanathan'
p1957
(lp1958
g212
ag31
ag39
ag686
ag118
asS'Lucy Mair'
p1959
(lp1960
g210
ag45
ag380
ag258
ag81
asS'Brit Solli'
p1961
(lp1962
g423
ag750
ag194
ag62
ag258
asg1817
(lp1963
g337
ag408
aS'Joanne M. Maguire'
p1964
ag173
ag415
asg1875
(lp1965
g415
ag39
ag64
ag145
ag1364
asS'Julia Elena Fort\xc3\xban'
p1966
(lp1967
g262
ag263
ag264
ag265
ag266
asS'Marija Makarovi\xc4\x8d'
p1968
(lp1969
g262
ag263
ag264
ag265
ag266
asS'Jean Lave'
p1970
(lp1971
g1769
ag741
ag742
ag185
ag308
asg604
(lp1972
g96
ag308
ag842
ag870
ag137
asS'Bonnie Nardi'
p1973
(lp1974
g156
ag686
ag864
ag1331
ag1001
asS'Marcia C. Inhorn'
p1975
(lp1976
g1323
ag62
ag750
ag571
ag572
asg518
(lp1977
g515
ag519
ag271
ag64
ag74
asS'Idelisa Bonnelly'
p1978
(lp1979
g173
ag1139
ag1279
ag120
ag1075
asg314
(lp1980
g244
ag245
ag246
ag247
ag313
asg951
(lp1981
g112
ag113
ag114
ag941
ag623
asg1039
(lp1982
g324
ag1037
ag579
ag148
ag685
asS'Miranda Aldhouse-Green'
p1983
(lp1984
g472
ag133
ag52
ag177
ag353
asg1022
(lp1985
g194
ag269
ag353
ag473
ag423
asS'Henrietta Swan Leavitt'
p1986
(lp1987
g76
ag1875
ag14
ag164
ag308
asS'Dixy Lee Ray'
p1988
(lp1989
g423
ag235
ag148
ag162
ag102
asS'Helena Wulff'
p1990
(lp1991
g25
ag493
ag462
ag690
ag688
asg654
(lp1992
g1170
ag118
ag133
ag651
ag1086
asg792
(lp1993
g1471
ag472
ag1988
ag928
ag226
asS'Berit Wallenberg'
p1994
(lp1995
g903
ag791
ag49
ag501
ag1018
asS'Judith Krug'
p1996
(lp1997
g458
aS'Moira Dunbar'
p1998
aS'Brigitte Boisselier'
p1999
ag54
ag1487
asS'Clarisa Hardy'
p2000
(lp2001
g152
ag154
ag155
ag1487
ag1558
asg699
(lp2002
g803
ag696
ag700
ag507
ag45
asS'Kamala Sohonie'
p2003
(lp2004
g1629
aS'Emily Riehl'
p2005
ag1131
ag1630
ag602
asS'Ruth Schmidt'
p2006
(lp2007
g1186
ag682
ag164
ag736
aS'Hilde Danielsen'
p2008
asg1155
(lp2009
g1154
ag1152
ag1156
ag642
ag643
asS'Zeineb Benzina'
p2010
(lp2011
g856
ag177
ag602
ag1054
ag363
asg1087
(lp2012
g1086
ag842
ag420
ag675
ag5
asS'Eslanda Goode Robeson'
p2013
(lp2014
g280
ag284
ag218
ag216
ag219
asS'Mary Amdur'
p2015
(lp2016
S'Angelika Amon'
p2017
ag145
ag806
ag1887
ag139
asS'Jane C. Goodale'
p2018
(lp2019
g1420
ag1583
ag269
ag380
ag1076
asS'Ernestine Friedl'
p2020
(lp2021
g262
ag263
ag264
ag265
ag266
asg632
(lp2022
g341
ag73
ag380
ag4
ag1560
asg1939
(lp2023
g181
ag716
ag407
ag1317
ag208
asg207
(lp2024
g208
ag168
ag225
ag205
ag206
asg1811
(lp2025
g1809
ag1647
ag1448
ag847
ag482
asg298
(lp2026
g362
ag391
ag670
ag61
ag770
asg213
(lp2027
g215
ag162
ag88
ag210
ag638
asg649
(lp2028
g650
ag635
ag636
ag1338
ag1317
asS'Ida Halpern'
p2029
(lp2030
g476
ag340
ag1076
ag6
ag232
asg1668
(lp2031
g732
ag423
ag3
ag1583
ag5
asg677
(lp2032
g62
ag423
ag751
ag723
ag750
asS'Janet Roitman'
p2033
(lp2034
g262
ag263
ag264
ag265
ag266
asg1186
(lp2035
g2006
aS'Margaret Conkey'
p2036
ag671
ag729
ag125
asg1133
(lp2037
g430
ag324
ag521
ag940
ag1040
asS'Marilyn Ivy'
p2038
(lp2039
g534
ag457
ag661
ag1712
ag95
asS'Barbara Myerhoff'
p2040
(lp2041
g262
ag263
ag264
ag265
ag266
asg532
(lp2042
g492
ag226
ag672
ag227
ag372
asg719
(lp2043
g940
ag239
ag195
ag501
ag25
asg335
(lp2044
g1250
ag716
ag690
ag244
ag245
asg698
(lp2045
g696
ag1725
ag288
ag119
ag189
asg1432
(lp2046
S'Rivke Jaffe'
p2047
ag1155
ag1152
ag1156
ag642
asg1128
(lp2048
g138
ag177
ag705
ag366
ag392
asS'Edith Claypole'
p2049
(lp2050
g507
ag1959
ag867
ag370
ag728
asg700
(lp2051
g494
ag754
ag903
ag49
ag696
asg20
(lp2052
g17
ag15
ag21
ag18
ag1259
asS'Bangalore Nagarathnamma'
p2053
(lp2054
g304
ag1002
ag358
ag835
ag149
asg621
(lp2055
g353
ag1056
ag806
ag194
ag259
asg809
(lp2056
g182
ag200
ag1096
ag876
ag921
asg1437
(lp2057
g1435
ag741
ag742
ag1438
ag552
asS'Dorothy E. Smith'
p2058
(lp2059
g507
ag962
ag1284
ag391
ag69
asg1253
(lp2060
g1281
ag193
ag427
ag746
aS'Frances Gertrude McGill'
p2061
asg2047
(lp2062
g1432
ag72
ag232
ag1606
ag45
asg336
(lp2063
g208
ag716
ag934
ag108
ag337
asg383
(lp2064
g638
ag162
ag144
ag215
ag88
asg642
(lp2065
g1154
ag1155
ag1152
ag1156
ag643
asg1629
(lp2066
g74
ag59
ag1323
ag1975
ag462
asg1581
(lp2067
g156
ag1579
ag915
ag376
ag46
asg1729
(lp2068
g372
ag61
ag620
ag823
ag783
asg1438
(lp2069
g64
ag69
ag567
ag4
ag1014
asg337
(lp2070
g410
ag946
ag638
ag849
ag207
asg1410
(lp2071
g1560
ag526
ag80
ag665
ag996
asS'Hypatia'
p2072
(lp2073
g598
ag454
ag1396
ag488
ag489
asg273
(lp2074
g465
ag61
ag194
ag63
ag464
asg1096
(lp2075
g1114
aS'Alice Beck Kehoe'
p2076
ag809
ag182
ag194
asg1015
(lp2077
g1257
ag1014
ag127
ag1012
ag836
asg893
(lp2078
g1138
ag207
ag208
ag225
ag173
asg1999
(lp2079
g145
ag350
ag763
ag39
ag315
asg403
(lp2080
g21
ag791
ag47
ag1408
ag402
asg944
(lp2081
g782
ag780
ag106
ag783
ag942
asS'Susan Kane'
p2082
(lp2083
g61
ag194
ag590
ag464
ag915
asg128
(lp2084
g777
ag307
ag125
ag123
ag308
asg3
(lp2085
g69
ag5
ag309
ag331
ag64
asg282
(lp2086
g254
ag272
ag280
ag1295
ag782
asg887
(lp2087
g1357
aS'Cicely Pearl Blair'
p2088
ag874
ag635
ag636
asS'Ida Henrietta Hyde'
p2089
(lp2090
g150
ag797
ag107
ag168
ag1238
asS'Winifred Lamb'
p2091
(lp2092
g1047
ag213
aS'Joan du Plat Taylor'
p2093
ag1606
ag75
asg1897
(lp2094
g1895
ag716
ag717
ag337
ag410
asg1229
(lp2095
g602
aS'Dorothea Bate'
p2096
ag712
aS'Lucille Farrier Stickel'
p2097
ag755
asS'Maria von Linden'
p2098
(lp2099
g620
ag622
ag1056
ag1054
ag191
asS'Frieda Fraser'
p2100
(lp2101
S'Susan Gerbi'
p2102
ag68
ag414
ag1560
ag67
asg366
(lp2103
g1087
ag514
ag848
ag64
ag705
asg888
(lp2104
g297
ag874
ag625
ag85
ag1158
asg1106
(lp2105
g342
ag343
ag167
ag145
ag993
asg79
(lp2106
g1390
ag538
ag224
ag568
ag81
asg1138
(lp2107
g893
ag1034
ag207
ag208
ag615
asS'Ren\xc3\xa9e Friedman'
p2108
(lp2109
g466
ag408
ag1343
ag120
ag46
asg727
(lp2110
g725
ag728
ag414
ag52
ag120
asg187
(lp2111
g827
ag825
ag185
ag845
ag1209
asg1591
(lp2112
g1589
ag712
ag2096
ag602
ag2097
asS'Jeanne LaDuke'
p2113
(lp2114
S'Eilat Mazar'
p2115
ag2076
ag48
ag626
ag1096
asg736
(lp2116
g68
ag137
ag48
ag1887
ag184
asg481
(lp2117
g88
ag723
ag92
ag93
ag595
asg226
(lp2118
g227
aS'Klara D\xc3\xb6pel'
p2119
ag222
ag1273
ag532
asg201
(lp2120
g1998
ag198
ag534
ag1030
ag1600
asS'Julia Averkieva'
p2121
(lp2122
g279
aS'Sally Price'
p2123
ag85
ag87
ag1301
asg985
(lp2124
g638
ag337
ag1420
ag144
ag716
asg635
(lp2125
g636
ag494
ag115
ag649
ag173
asg754
(lp2126
g602
ag755
ag278
ag138
ag49
asg155
(lp2127
g152
ag154
ag122
ag156
ag157
asg1682
(lp2128
g736
ag120
ag1636
ag67
ag341
asS'Fay Ajzenberg-Selove'
p2129
(lp2130
g262
ag263
ag264
ag265
ag266
asS'Helen Dyer'
p2131
(lp2132
g1364
ag2036
ag1560
ag1539
ag1540
asg1540
(lp2133
g1539
ag1502
ag820
ag1392
ag508
asg1273
(lp2134
g112
ag113
ag951
ag277
ag363
asg510
(lp2135
g206
ag419
ag418
ag717
ag160
asg195
(lp2136
g133
ag239
ag578
ag193
ag844
asg861
(lp2137
g527
ag5
ag67
ag3
ag318
asg1471
(lp2138
g914
ag47
ag927
ag974
ag792
asg55
(lp2139
g56
ag131
ag32
ag27
ag495
asg350
(lp2140
g308
ag314
ag344
ag145
ag448
asg82
(lp2141
g1906
ag276
ag88
ag468
ag125
asg299
(lp2142
g1086
ag996
ag38
ag1374
ag748
asS'Sula Benet'
p2143
(lp2144
g254
ag282
ag193
ag1127
ag284
asg882
(lp2145
g106
ag880
ag430
ag577
ag104
asS'Reina Torres de Ara\xc3\xbaz'
p2146
(lp2147
g488
ag489
ag341
ag1336
ag561
asg2061
(lp2148
g1253
ag806
ag1281
ag737
ag738
asg157
(lp2149
g423
ag751
ag62
ag45
ag945
asg608
(lp2150
g476
ag395
ag1131
ag1629
ag552
asg2017
(lp2151
g2015
ag145
ag806
ag1887
ag139
asg1053
(lp2152
g654
ag620
ag231
ag1826
ag651
asS'Bertha Parker Pallan'
p2153
(lp2154
g166
ag1817
ag389
ag406
ag1654
asg1086
(lp2155
g1084
ag423
ag1587
ag235
ag568
asg671
(lp2156
g557
ag85
ag650
ag1633
ag149
asS'Maxine Margolis'
p2157
(lp2158
g690
ag92
ag716
ag335
ag2013
asS'Erika Simon'
p2159
(lp2160
g4
ag1961
ag200
ag750
ag787
asg180
(lp2161
g178
ag181
ag182
ag183
ag184
asg528
(lp2162
g125
ag214
ag88
ag340
ag212
asg1508
(lp2163
g1241
ag1506
ag64
ag7
ag514
asg446
(lp2164
g439
aS'Patricia Alice Shaw'
p2165
ag1031
ag741
ag742
asg1373
(lp2166
g687
ag600
ag1390
ag1771
ag1712
asg2008
(lp2167
g250
ag927
ag63
ag1626
ag2006
asg701
(lp2168
g94
ag95
ag696
ag271
ag864
asg527
(lp2169
g120
ag340
ag1117
ag392
ag190
asg349
(lp2170
g52
ag208
ag225
ag107
ag173
asS'Sue Hendrickson'
p2171
(lp2172
g262
ag263
ag264
ag265
ag266
asS'Ruth Lehmann'
p2173
(lp2174
g1660
aS'Pamela L. Gay'
p2175
ag549
ag948
ag456
asS'Jean Briggs'
p2176
(lp2177
g595
ag831
ag777
ag125
ag1343
asg27
(lp2178
g131
ag194
ag256
ag112
ag572
asS'Carolyn Sargent'
p2179
(lp2180
g262
ag263
ag264
ag265
ag266
asg673
(lp2181
g670
ag557
aS'Muhibbe Darga'
p2182
ag83
ag254
asg1114
(lp2183
g1096
ag337
ag207
ag1420
ag611
asg141
(lp2184
g139
ag1689
ag1027
ag549
ag472
asg961
(lp2185
g960
ag464
ag131
ag27
ag194
asg1533
(lp2186
g62
ag46
ag1075
ag720
ag568
asg1640
(lp2187
g372
ag197
ag622
ag806
ag820
asg1187
(lp2188
g1238
ag829
ag173
ag932
ag6
asg431
(lp2189
g432
ag145
ag1390
ag308
ag453
asg517
(lp2190
g515
ag112
ag113
ag277
ag114
asg476
(lp2191
g225
ag208
ag182
ag168
ag456
asS'Omowunmi Sadik'
p2192
(lp2193
g68
ag66
ag758
ag469
ag183
asg1457
(lp2194
g25
ag1301
ag719
ag973
ag1354
asg61
(lp2195
g464
ag59
ag57
ag60
ag74
asg28
(lp2196
g27
ag1605
ag50
ag22
ag24
asg49
(lp2197
g903
ag1199
ag423
ag214
ag465
asg354
(lp2198
g351
ag157
ag1291
ag1954
ag1374
asS'Mary Douglas'
p2199
(lp2200
g890
ag210
ag1626
ag310
ag212
asS'Leslie Van Gelder'
p2201
(lp2202
g127
ag258
ag641
ag420
ag549
asg1080
(lp2203
g353
ag194
ag74
ag355
ag133
asg363
(lp2204
g277
ag133
ag517
ag1056
ag1273
asS'Janice Eberly'
p2205
(lp2206
g241
ag243
ag1058
ag246
ag247
asg1633
(lp2207
g277
ag671
ag85
ag87
ag661
asS'Miriam Tildesley'
p2208
(lp2209
g391
ag1343
ag1080
ag61
ag720
asg72
(lp2210
g590
ag34
ag617
ag277
ag864
asg566
(lp2211
g162
ag564
ag168
ag224
ag638
asg1067
(lp2212
g1065
ag1068
ag519
ag363
ag175
asg1063
(lp2213
g1061
ag465
ag1064
ag601
ag1754
asS'Mary Pickford'
p2214
(lp2215
g262
ag263
ag264
ag265
ag266
asg271
(lp2216
g74
ag48
ag120
ag72
aS'Samar Minallah'
p2217
asg636
(lp2218
g635
ag494
ag115
ag649
ag173
asg2182
(lp2219
g363
ag670
ag52
ag231
ag495
asg255
(lp2220
g86
ag112
ag113
ag625
ag558
asg1143
(lp2221
g723
ag118
ag638
ag1497
ag235
asg962
(lp2222
g324
ag57
ag61
ag194
ag464
asS'Kathryn Woolard'
p2223
(lp2224
g319
ag665
ag308
ag1169
ag189
asg973
(lp2225
g1301
ag1377
ag368
ag971
ag602
asg245
(lp2226
g244
ag241
ag243
ag246
ag247
asS'Antonia Arslan'
p2227
(lp2228
g1084
ag777
ag686
ag318
ag711
asS'Joan Feynman'
p2229
(lp2230
g954
ag1616
ag664
ag341
ag1030
asg108
(lp2231
g104
ag107
ag109
ag880
ag649
asg2165
(lp2232
g451
ag76
ag229
ag446
aS'Vivienne Cassie Cooper'
p2233
asg1574
(lp2234
g921
ag14
ag166
ag145
ag139
asg907
(lp2235
g164
ag1114
ag682
ag107
ag948
asg1056
(lp2236
g620
ag621
ag1054
ag578
ag353
asg806
(lp2237
g193
ag1102
ag620
ag197
ag621
asS'Yue Qi'
p2238
(lp2239
g1161
ag384
ag383
ag17
aS'Sydney Mary Thompson'
p2240
asg1504
(lp2241
g1560
aS'Polly Schaafsma'
p2242
ag631
ag977
ag439
asS'Wendy Rose'
p2243
(lp2244
g586
ag472
ag465
ag194
ag41
asg218
(lp2245
g216
ag219
ag220
ag32
ag221
asg731
(lp2246
g1179
ag125
ag729
ag69
ag1487
asg607
(lp2247
g541
ag235
ag770
ag605
ag973
asg666
(lp2248
g1377
ag828
ag488
ag489
ag743
asg1569
(lp2249
g940
ag355
ag238
ag239
ag856
asg212
(lp2250
g210
ag421
ag88
ag424
ag423
asg2102
(lp2251
g2100
ag68
ag414
ag1560
ag67
asg563
(lp2252
g890
ag675
ag5
ag729
ag679
asg898
(lp2253
g133
ag462
ag251
ag519
ag391
asg1915
(lp2254
g777
ag1110
ag1208
ag472
ag127
asg487
(lp2255
g486
ag484
ag184
ag609
ag106
asg948
(lp2256
g166
ag476
ag946
ag337
ag1147
asg960
(lp2257
g961
ag464
ag131
ag27
ag194
asg18
(lp2258
g21
ag15
ag19
ag371
ag20
asS'Audrey Smedley'
p2259
(lp2260
g734
ag798
ag679
ag1030
ag675
asg494
(lp2261
g635
ag636
ag115
ag700
ag81
asg136
(lp2262
g134
ag1506
ag102
ag10
ag514
asg1716
(lp2263
g1714
ag395
ag1324
ag29
ag1065
asg24
(lp2264
g22
ag1892
ag272
ag108
ag52
asg1805
(lp2265
g1906
ag82
ag277
ag85
ag87
asg2096
(lp2266
g1589
ag1591
ag1229
ag358
ag897
asg626
(lp2267
g283
ag62
ag750
ag571
ag572
asg707
(lp2268
g675
ag421
ag705
ag69
ag5
asg1647
(lp2269
g2217
ag625
ag403
ag672
ag271
asg1964
(lp2270
g160
ag1465
ag1817
ag144
ag510
asg822
(lp2271
g31
ag602
ag1239
ag755
ag363
asg641
(lp2272
g677
ag258
ag447
ag2201
ag99
asg2088
(lp2273
g1357
ag85
ag887
ag534
ag874
asg545
(lp2274
g323
ag411
ag133
ag543
ag322
asS'Judith Becker'
p2275
(lp2276
g686
ag1185
ag118
ag1226
ag1331
asS'Mireya Mayor'
p2277
(lp2278
g462
ag463
ag723
ag269
ag258
asg398
(lp2279
g1420
ag208
ag611
ag709
ag638
asg820
(lp2280
g205
ag458
ag1259
ag1712
ag1238
asS'Pauline Gracia Beery Mack'
p2281
(lp2282
g262
ag263
ag264
ag265
ag266
asS'Judith Lynne Hanna'
p2283
(lp2284
g534
ag870
ag94
ag95
ag233
asg901
(lp2285
g1880
ag319
ag488
ag489
ag1106
asg1232
(lp2286
g40
ag1696
ag265
ag76
ag488
asg469
(lp2287
g308
ag388
ag450
ag448
ag466
asg695
(lp2288
g945
ag750
ag595
ag831
ag89
asS'Marvalee Wake'
p2289
(lp2290
g323
ag650
ag1589
ag626
ag573
asS'Lydia T. Black'
p2291
(lp2292
g262
ag263
ag264
ag265
ag266
asS'Honor Frost'
p2293
(lp2294
g69
ag1084
ag1169
ag120
ag962
asg284
(lp2295
g272
ag52
ag620
ag799
ag823
asg1089
(lp2296
g66
ag411
ag137
ag408
ag183
asg836
(lp2297
g1123
ag1137
ag732
ag1015
ag832
asg1191
(lp2298
g1630
ag137
ag1131
ag134
ag840
asg1266
(lp2299
g1208
ag1745
ag591
ag1179
ag122
asS'Nancy M. Hill'
p2300
(lp2301
g26
ag386
ag195
ag207
ag1251
asg353
(lp2302
g194
ag355
ag1080
ag133
ag259
asS'Sumaya bint El Hassan'
p2303
(lp2304
g526
ag309
ag138
ag392
ag341
asg903
(lp2305
g49
ag1199
ag423
ag214
ag465
asS'Kim Cobb'
p2306
(lp2307
g1241
ag181
ag907
ag1560
ag1233
asg568
(lp2308
g1587
ag331
ag88
ag62
ag102
asg341
(lp2309
g232
ag632
ag986
ag534
ag1395
asg694
(lp2310
g638
ag125
ag144
ag1377
ag123
asg1446
(lp2311
g137
ag903
ag49
ag122
ag1502
asS'Elinor Ochs'
p2312
(lp2313
g121
ag286
ag287
ag997
ag372
asg424
(lp2314
g421
ag1484
ag423
ag212
ag88
asg577
(lp2315
g882
ag106
ag207
ag966
ag541
asg738
(lp2316
g737
ag33
ag1279
ag144
ag243
asg1259
(lp2317
g148
ag820
ag810
ag151
ag1491
asg355
(lp2318
g353
ag194
ag133
ag259
ag472
asg1040
(lp2319
g1148
ag1133
ag324
ag934
ag430
asg890
(lp2320
g563
ag318
ag678
ag675
ag138
asS'Marjorie Halpin'
p2321
(lp2322
g262
ag263
ag264
ag265
ag266
asg1484
(lp2323
g424
ag423
ag421
ag212
ag331
asg591
(lp2324
g751
ag61
ag945
ag62
ag48
asg190
(lp2325
g527
ag315
ag317
ag120
ag391
asS'Martha Crago'
p2326
(lp2327
g254
ag1048
ag915
ag72
ag917
asg304
(lp2328
g1158
ag1809
ag855
ag2053
ag820
asS'Grete Mostny'
p2329
(lp2330
g62
ag962
ag914
ag799
aS'Patricia Zavella'
p2331
asg324
(lp2332
g168
ag1133
ag962
ag430
ag1523
asS'Marie Lebour'
p2333
(lp2334
g746
ag951
ag1054
ag112
ag113
asg980
(lp2335
g978
ag981
ag982
ag148
ag507
asS'Victoria Bricker'
p2336
(lp2337
g52
ag1838
ag1317
ag206
ag1730
asg526
(lp2338
g420
ag340
ag1084
ag1745
ag777
asS'Stine Rossel'
p2339
(lp2340
g120
ag1087
ag526
ag166
ag308
asg183
(lp2341
g458
ag414
ag820
ag276
ag1089
asg1401
(lp2342
g810
ag483
ag1390
ag1149
ag10
asg1357
(lp2343
g2088
ag85
ag887
ag534
ag874
asg47
(lp2344
g93
ag62
ag649
aS'Chuni Kotal'
p2345
ag403
asg163
(lp2346
g172
ag161
ag158
ag162
aS'Annette Salmeen'
p2347
asS'Marjorie Shostak'
p2348
(lp2349
g739
ag393
ag709
ag1437
ag1435
asg717
(lp2350
g510
ag160
ag418
ag206
ag638
asS'Rosalind Pitt-Rivers'
p2351
(lp2352
g820
ag682
ag745
ag1116
ag1757
asS'Toshiko Yuasa'
p2353
(lp2354
g262
ag263
ag264
ag265
ag266
asg177
(lp2355
g353
ag355
ag194
ag52
ag620
asg593
(lp2356
g224
ag1192
ag57
ag888
ag194
asg672
(lp2357
g297
ag112
ag113
ag625
ag874
asg835
(lp2358
g645
ag372
ag104
ag52
ag120
asg410
(lp2359
g337
ag408
ag208
ag395
ag716
asg456
(lp2360
g476
ag182
ag1241
ag454
ag685
asg2175
(lp2361
g109
ag716
ag144
ag160
ag970
asS'Kendra Coulter'
p2362
(lp2363
g1491
ag820
ag328
ag80
ag1408
asg746
(lp2364
g193
ag620
ag823
ag906
ag323
asg486
(lp2365
g484
ag487
ag266
ag488
ag489
asg407
(lp2366
g19
ag208
ag18
ag477
ag717
asg32
(lp2367
g131
ag27
ag495
ag55
ag56
asg270
(lp2368
g215
ag62
ag750
ag213
ag974
asg12
(lp2369
g1560
ag4
ag1116
ag1168
ag777
asS'Janet D. Spector'
p2370
(lp2371
g945
ag751
ag638
ag88
ag62
asg797
(lp2372
g1117
ag76
ag90
ag1217
ag795
asS'Sarah Blaffer Hrdy'
p2373
(lp2374
g460
ag1761
ag1378
ag115
ag932
asg1872
(lp2375
g10
ag1245
ag600
ag136
ag1390
asg602
(lp2376
g712
ag754
ag278
ag822
ag755
asS'Diane Zaino Chase'
p2377
(lp2378
g262
ag263
ag264
ag265
ag266
asg2119
(lp2379
g226
ag849
ag645
ag532
ag227
asS'Dorothy Garrod'
p2380
(lp2381
g194
ag723
ag131
ag423
ag814
asg1364
(lp2382
g844
ag1362
ag849
ag241
ag243
asg571
(lp2383
g495
ag572
ag625
ag272
ag59
asS'Nancy Sottos'
p2384
(lp2385
S'Ida Maclean'
p2386
ag1075
ag1158
ag683
ag52
asg1137
(lp2387
g615
ag836
ag52
ag1138
ag732
asS'Gertrude Simmons Burlingham'
p2388
(lp2389
g107
ag999
ag1887
ag1018
ag68
asg451
(lp2390
g453
ag450
ag448
ag2165
ag811
asg367
(lp2391
g94
ag95
ag1273
ag1434
ag829
asg1167
(lp2392
g1030
ag4
ag420
ag3
ag1745
asg313
(lp2393
g311
ag314
ag246
ag247
ag245
asg26
(lp2394
g22
ag195
ag541
ag2300
ag2345
asg742
(lp2395
g741
ag1437
ag1435
ag1018
ag489
asg1905
(lp2396
g888
ag839
ag832
ag1033
ag717
asg414
(lp2397
g468
ag183
ag1190
ag234
ag564
asS'Lina Fruzzetti'
p2398
(lp2399
g752
ag754
ag338
ag758
ag755
asS'Grace Oladunni Taylor'
p2400
(lp2401
g389
ag188
ag183
ag946
ag314
asg2347
(lp2402
g162
ag163
ag215
ag88
ag92
asg627
(lp2403
g625
ag495
ag283
ag571
ag112
asS'Mary Brodrick'
p2404
(lp2405
g205
ag395
ag638
ag1465
ag611
asg1220
(lp2406
g1218
ag224
ag156
ag508
ag328
asS'Mollie McGeown'
p2407
(lp2408
g1534
ag1957
ag1284
ag408
ag1842
asS'Lee Ann Newsom'
p2409
(lp2410
g331
ag2380
ag642
ag643
ag1606
asg293
(lp2411
g290
ag1920
ag1534
ag123
ag1112
asg625
(lp2412
g495
ag571
ag283
ag112
ag113
asS'Ethel Alpenfels'
p2413
(lp2414
g1284
ag2097
ag69
ag1043
ag1063
asS'Sharada Srinivasan'
p2415
(lp2416
g115
ag114
ag951
ag94
ag95
asS'Caroline Humphrey'
p2417
(lp2418
g315
ag317
ag1880
ag957
ag319
asg1883
(lp2419
g743
ag1026
ag189
ag1336
ag2223
asg310
(lp2420
g1179
ag1743
ag1744
ag1741
ag1117
asg1033
(lp2421
g52
ag175
ag888
ag847
ag999
asg987
(lp2422
g929
ag1616
ag1034
ag925
ag983
asg1405
(lp2423
g234
ag414
ag1084
ag1086
ag420
asg81
(lp2424
g11
ag1390
ag1161
ag10
ag102
asg308
(lp2425
g310
ag318
ag128
ag392
ag665
asg2242
(lp2426
g329
ag526
ag1169
ag679
ag391
asS'Nicolette Bethel'
p2427
(lp2428
g92
ag93
ag712
ag661
ag368
asg1517
(lp2429
g1515
ag2089
ag138
ag238
ag829
asS'Dorothea Pertz'
p2430
(lp2431
g615
ag42
ag885
ag1660
ag612
asg601
(lp2432
g806
ag602
ag193
ag194
ag259
asg1795
(lp2433
g383
ag150
ag945
ag595
ag831
asg786
(lp2434
g120
ag617
ag784
ag568
ag157
asg1176
(lp2435
g996
ag329
aS'Dounia Bouzar'
p2436
ag590
ag1095
asg1942
(lp2437
g782
ag783
ag951
ag941
ag623
asg1043
(lp2438
g719
ag52
ag602
ag1080
ag1138
asg439
(lp2439
g814
ag1434
ag1069
ag64
ag446
asS'Antje Boetius'
p2440
(lp2441
g42
ag495
ag1031
ag1282
ag775
asg755
(lp2442
g602
ag138
ag754
ag970
ag752
asg1416
(lp2443
g717
ag183
ag1114
ag682
ag458
asS'Lidija Liepi\xc5\x86a'
p2444
(lp2445
g348
ag1201
ag2146
ag262
ag263
asg1743
(lp2446
g1744
ag1741
ag310
ag527
ag1745
asg444
(lp2447
g447
ag62
ag750
ag423
ag748
asg1420
(lp2448
g160
ag398
ag716
ag205
ag638
asg1954
(lp2449
g1491
ag354
ag1374
ag695
ag866
asS'Margarete Bieber'
p2450
(lp2451
g538
ag567
ag224
ag1075
ag149
asg1338
(lp2452
g649
ag650
ag940
ag430
ag104
asg750
(lp2453
g62
ag423
ag751
ag695
ag88
asg2217
(lp2454
g271
ag1647
ag591
aS'Kay Warren'
p2455
ag1561
asg616
(lp2456
g1730
ag617
ag903
ag49
ag888
asg1272
(lp2457
g83
ag1270
ag885
ag87
ag1236
asg2436
(lp2458
g1273
ag1086
ag229
ag88
ag524
asg329
(lp2459
g997
ag856
ag331
ag472
ag74
asg941
(lp2460
g623
ag951
ag175
ag952
ag618
asg346
(lp2461
g347
ag246
ag247
ag1656
ag243
asg1168
(lp2462
g420
ag526
ag125
ag679
ag45
asg1925
(lp2463
g751
ag1161
ag748
ag102
ag62
asg823
(lp2464
g620
ag193
ag194
ag133
ag353
asg2386
(lp2465
g52
ag175
ag2384
ag1420
ag225
asg244
(lp2466
g245
ag241
ag243
ag246
ag247
asg160
(lp2467
g158
ag1420
ag638
ag717
ag144
asg2455
(lp2468
g2217
ag526
ag451
ag686
ag138
asg1368
(lp2469
g851
ag307
ag156
ag3
aS'Yasmin Altwaijri'
p2470
asg215
(lp2471
g213
ag162
ag88
ag214
ag92
asS'Mary Hamilton Swindler'
p2472
(lp2473
g324
ag272
ag497
ag386
ag254
asg1887
(lp2474
g64
ag736
ag68
ag999
ag2017
asg265
(lp2475
g451
ag1725
ag286
ag287
ag1232
asg737
(lp2476
g738
ag33
ag1279
ag144
ag243
asg876
(lp2477
g182
ag1199
ag476
ag809
ag430
asg1392
(lp2478
g52
ag1539
ag1540
ag173
ag1018
asg1745
(lp2479
g526
ag64
ag76
ag631
ag3
asg1476
(lp2480
S'Ginette Aumassip'
p2481
ag675
ag127
ag391
ag1168
asS'Camilla Wedgwood'
p2482
(lp2483
g262
ag263
ag264
ag265
ag266
asg791
(lp2484
g35
ag403
ag1408
ag1838
ag427
asg648
(lp2485
g646
ag622
ag962
ag324
ag876
asg986
(lp2486
g970
ag341
ag820
ag138
ag1420
asS'Irma McClaurin'
p2487
(lp2488
g666
ag226
ag1883
ag7
ag743
asg438
(lp2489
g241
ag243
ag430
ag244
ag245
asg440
(lp2490
g403
ag69
ag1253
ag519
ag1712
asg1377
(lp2491
g973
ag694
ag671
ag1633
ag87
asg934
(lp2492
g932
ag349
ag336
ag337
ag1754
asg1874
(lp2493
g118
ag451
ag64
ag128
ag453
asg343
(lp2494
g342
ag166
ag167
ag395
ag513
asg189
(lp2495
g1090
ag341
ag319
ag288
ag2223
asS'Minou Tav\xc3\xa1rez Mirabal'
p2496
(lp2497
g127
ag921
ag1874
ag472
ag502
asg790
(lp2498
g788
ag791
ag407
ag792
ag177
asg288
(lp2499
g5
ag840
ag1179
ag686
ag1341
asg243
(lp2500
g241
ag244
ag245
ag246
ag247
asg93
(lp2501
g47
ag92
ag131
ag90
ag477
asg2123
(lp2502
g524
ag233
ag90
ag2143
ag305
asg1149
(lp2503
g244
ag245
ag1678
ag810
ag246
asg319
(lp2504
g1209
ag308
ag234
ag318
ag901
asg1211
(lp2505
g1209
ag665
ag412
ag188
ag450
asg56
(lp2506
g55
ag131
ag32
ag27
ag495
asg2240
(lp2507
g423
ag1161
ag163
ag172
ag69
asg39
(lp2508
g64
ag340
ag1030
ag679
ag308
asg89
(lp2509
g88
ag695
ag62
ag750
ag279
asg1164
(lp2510
g751
ag423
ag161
ag2345
ag19
asg550
(lp2511
g341
ag645
ag181
ag1352
ag1354
asg1744
(lp2512
g1743
ag1741
ag310
ag527
ag1745
asg193
(lp2513
g823
ag620
ag133
ag194
ag259
asg1064
(lp2514
g69
ag289
ag1063
ag1842
ag482
asg142
(lp2515
g143
ag139
ag183
ag388
ag389
asS'Sharon Anderson'
p2516
(lp2517
g102
ag811
ag1925
ag1161
ag150
asS'Alice Roberts'
p2518
(lp2519
g934
ag227
ag1895
ag427
ag195
asg728
(lp2520
g508
ag538
ag595
ag831
ag1075
asg434
(lp2521
g497
ag74
ag1001
ag75
ag915
asg814
(lp2522
g423
ag62
ag63
ag52
ag2380
asg42
(lp2523
g2440
ag2430
ag775
ag573
ag167
asg1630
(lp2524
g1131
ag1191
ag2005
ag102
ag1129
asg1605
(lp2525
g55
ag56
ag27
ag28
ag1603
asg33
(lp2526
g430
ag395
ag615
ag737
ag738
asS'Louise Bourgeois Boursier'
p2527
(lp2528
g435
ag503
ag349
ag705
ag107
asg1295
(lp2529
g282
ag1048
ag272
ag462
ag254
asg250
(lp2530
g4
ag391
ag248
ag1374
ag515
asg173
(lp2531
g595
ag831
ag208
ag557
ag209
asg1496
(lp2532
g195
ag1127
ag133
ag112
ag113
asS'Rita P. Wright'
p2533
(lp2534
g1127
ag903
ag49
ag403
ag193
asg1345
(lp2535
g423
ag1036
ag157
ag292
ag751
asg1310
(lp2536
g1199
ag1282
ag402
ag1736
ag137
asg2481
(lp2537
g1476
ag814
ag1069
ag1140
aS'Adeline Masquelier'
p2538
asg839
(lp2539
g1905
ag430
ag54
ag921
ag182
asg664
(lp2540
g743
ag1026
ag341
ag366
ag1674
asS'Kiran Mazumdar-Shaw'
p2541
(lp2542
g737
ag738
ag1064
ag832
ag1199
asg300
(lp2543
g133
ag844
ag195
ag578
ag363
asg252
(lp2544
g93
ag251
ag133
ag248
ag403
asg645
(lp2545
g835
ag397
ag458
ag1018
ag336
asg1390
(lp2546
g79
ag538
ag81
ag775
ag379
asg586
(lp2547
g74
ag284
ag272
ag52
ag120
asg1656
(lp2548
g1317
ag162
ag241
ag243
ag542
asg994
(lp2549
g993
ag1106
ag431
ag432
ag169
asg600
(lp2550
g1245
ag384
ag1075
ag325
ag1161
asg53
(lp2551
g571
ag495
ag104
ag50
ag235
asS'Adelaide Ames'
p2552
(lp2553
g1561
ag787
ag832
ag751
ag120
asg2036
(lp2554
g1186
ag1008
ag5
ag80
ag741
asg1404
(lp2555
g241
ag243
ag438
ag1396
ag246
asS'Ellen Hayes'
p2556
(lp2557
g139
ag1689
ag1712
ag1754
ag1128
asg1654
(lp2558
g458
ag166
ag682
ag168
ag164
asg1323
(lp2559
g1975
ag62
ag750
ag571
ag572
asg2331
(lp2560
g712
ag462
ag420
ag1420
ag233
asg1282
(lp2561
g1310
ag1279
ag408
ag402
ag1722
asS'Maria Czaplicka'
p2562
(lp2563
g62
ag127
ag2093
ag403
ag1259
asg392
(lp2564
g527
ag731
ag309
ag308
ag310
asg1880
(lp2565
g665
ag901
ag315
ag317
ag489
asg513
(lp2566
g342
ag343
ag200
ag511
ag166
asg679
(lp2567
g675
ag3
ag6
ag127
ag138
asg1058
(lp2568
g241
ag243
ag244
ag245
ag246
asS'Melba Padilla Maggay'
p2569
(lp2570
g723
ag235
ag645
ag194
ag1925
asg262
(lp2571
g1438
ag341
ag183
ag73
ag338
asg2115
(lp2572
g2113
ag2076
ag48
ag626
ag1096
asg886
(lp2573
g2093
ag1761
ag193
ag83
ag100
asg1123
(lp2574
g836
ag64
ag183
ag372
ag514
asg1169
(lp2575
g1117
ag1179
ag996
ag524
ag842
asS'Katrina Karkazis'
p2576
(lp2577
g262
ag263
ag264
ag265
ag266
asg380
(lp2578
g379
ag125
ag1374
ag4
ag210
asg1117
(lp2579
g212
ag797
ag903
ag49
ag1217
asg818
(lp2580
g368
ag1633
ag83
ag209
ag938
asg209
(lp2581
g174
ag173
ag638
ag85
ag595
asg272
(lp2582
g282
ag571
ag572
ag284
ag63
asg763
(lp2583
g1241
ag457
ag1660
ag1465
ag144
asg1560
(lp2584
g1410
ag10
ag526
ag527
ag786
asg2076
(lp2585
g1096
ag1114
ag1502
ag809
ag986
asg2097
(lp2586
g712
ag1084
ag1797
ag602
ag330
asg214
(lp2587
g88
ag215
ag423
ag162
ag210
asg122
(lp2588
g567
ag945
ag751
ag1534
ag1502
asg138
(lp2589
g755
ag137
ag679
ag754
ag6
asS'Jennifer Moody'
p2590
(lp2591
g40
ag341
ag248
ag2242
ag49
asg1313
(lp2592
g235
ag1311
ag294
ag183
ag149
asg533
(lp2593
g384
ag381
ag172
ag137
ag626
asg885
(lp2594
g888
ag782
ag69
ag615
ag803
asg500
(lp2595
g109
ag131
ag1047
ag427
ag32
asg558
(lp2596
g112
ag113
ag556
ag625
ag297
asg854
(lp2597
g852
ag558
ag690
ag1448
ag86
asg1998
(lp2598
g201
ag842
ag678
ag1636
ag524
asg2345
(lp2599
g62
ag1164
ag423
ag751
ag161
asS'Madawi al-Rasheed'
p2600
(lp2601
g225
ag224
ag990
ag2386
ag1158
asg2005
(lp2602
g1630
ag1259
ag1491
ag63
ag2003
asS'Christine Niederberger Betton'
p2603
(lp2604
g69
ag331
ag543
ag1405
ag99
asg495
(lp2605
g571
ag625
ag131
ag778
ag283
asg1600
(lp2606
g1112
ag536
ag1817
ag76
ag200
asg866
(lp2607
g1047
ag193
ag15
ag1775
ag18
asS'Sally Falk Moore'
p2608
(lp2609
g262
ag263
ag264
ag265
ag266
asg2470
(lp2610
g1368
ag1539
ag1540
ag1408
ag139
asg2093
(lp2611
g213
ag886
ag195
ag74
ag355
asg595
(lp2612
g831
ag173
ag557
ag695
ag174
asg2538
(lp2613
g391
ag481
ag210
ag87
ag88
asg957
(lp2614
g665
ag632
ag1395
ag527
ag1745
asg2233
(lp2615
g1084
ag2165
ag1086
ag929
ag987
asS'Maria Eugenia Bozzoli'
p2616
(lp2617
g213
ag210
ag728
ag277
ag1075
asg798
(lp2618
g795
ag1561
ag508
ag870
ag567
asS'Fiona Caroline Graham'
p2619
(lp2620
g262
ag263
ag264
ag265
ag266
as.